(dp0
V58bc58c302b8c60953000001
p1
(lp2
I1
aI2
aI0
aI3
asV58bc9a5002b8c60953000008
p3
(lp4
I0
aI1
asV58b53bf722d3005309000004
p5
(lp6
I5
aI7
aI4
aI3
aI6
aI2
aI1
aI0
asV58a1c6b678275d0c4a000057
p7
(lp8
I0
aI1
aI4
aI3
aI2
asV588f2de394c1512c50000001
p9
(lp10
I0
aI1
asV58bd645702b8c60953000010
p11
(lp12
I0
asV58a1da4e78275d0c4a000059
p13
(lp14
I0
aI1
asV58a8071760087bc10a000037
p15
(lp16
I3
aI1
aI2
aI0
aI4
aI5
asV58bc5e2202b8c60953000002
p17
(lp18
I4
aI3
aI2
aI1
aI0
aI5
aI6
asV587f56c392a5b8ad44000001
p19
(lp20
I0
aI1
asV58bca1c202b8c6095300000b
p21
(lp22
I0
asV587e276be96a600607000001
p23
(lp24
I0
aI1
aI2
asV58962ed178275d0c4a000006
p25
(lp26
I2
aI1
aI3
aI4
aI0
asV58bbb77e22d3005309000017
p27
(lp28
I0
aI1
aI2
asV58a32efe60087bc10a000013
p29
(lp30
I0
aI1
asV58b6978822d300530900000a
p31
(lp32
I2
aI4
aI0
aI6
aI5
aI3
aI1
aI7
aI8
asV589c4c9078275d0c4a000040
p33
(lp34
I7
aI5
aI4
aI3
aI6
aI2
aI1
aI0
asV58a644e560087bc10a000027
p35
(lp36
I0
asV58b558d522d3005309000006
p37
(lp38
I1
aI2
aI4
aI6
aI3
aI5
aI0
asV5895ee638707e6ea39000001
p39
(lp40
I1
aI0
asV5889e2c83b87a8a73800000a
p41
(lp42
I1
aI0
asV58bc347422d300530900001e
p43
(lp44
I3
aI1
aI2
aI0
asV589185cc621ea6ff7e00000b
p45
(lp46
I6
aI3
aI4
aI2
aI1
aI5
aI0
aI7
asV5890e163621ea6ff7e000004
p47
(lp48
I3
aI2
aI1
aI0
aI4
asV58bc640002b8c60953000003
p49
(lp50
I1
aI0
asV588f5e9994c1512c50000004
p51
(lp52
I0
aI1
asV588533cee56acf5176000014
p53
(lp54
I1
aI0
asV58bbb68b22d3005309000015
p55
(lp56
I0
aI1
aI2
asV587f795d92a5b8ad44000007
p57
(lp58
I1
aI0
asV58a2c77a60087bc10a000002
p59
(lp60
I4
aI2
aI5
aI1
aI7
aI6
aI3
aI12
aI10
aI9
aI8
aI13
aI0
aI11
asV58bbbf3722d300530900001b
p61
(lp62
I2
aI3
aI4
aI1
aI0
aI5
asV58bbb64422d3005309000014
p63
(lp64
I4
aI5
aI2
aI3
aI1
aI0
asV589af57a78275d0c4a000038
p65
(lp66
I1
aI5
aI8
aI3
aI4
aI2
aI6
aI7
aI0
asV5895d0457d9090f35300000d
p67
(lp68
I2
aI1
aI0
aI4
aI5
aI6
aI3
asV588f9f83ed9bbee70d000004
p69
(lp70
I0
aI6
aI7
aI8
aI5
aI4
aI3
aI2
aI1
asV587dfde9ae05ffb474000001
p71
(lp72
I0
asV58bc9dbb02b8c60953000009
p73
(lp74
I0
aI1
aI2
asV58bbb71f22d3005309000016
p75
(lp76
I3
aI1
aI2
aI0
asV58bc666702b8c60953000004
p77
(lp78
I2
aI3
aI0
aI1
asV58a9d8a1396a458e50000005
p79
(lp80
I0
aI1
asV588f365194c1512c50000003
p81
(lp82
I1
aI0
asV58b6bd2622d300530900000c
p83
(lp84
I0
aI1
aI2
aI5
aI6
aI3
aI7
aI4
asV58917c88621ea6ff7e00000a
p85
(lp86
I4
aI5
aI6
aI3
aI2
aI1
aI0
asV58bc363622d300530900001f
p87
(lp88
I0
aI1
asV5891b125621ea6ff7e00000e
p89
(lp90
I0
aI4
aI5
aI3
aI1
aI2
aI6
aI7
asV58b6a42522d300530900000b
p91
(lp92
I1
aI0
aI3
aI2
aI4
aI5
asV587f90fa8ce3255b64000002
p93
(lp94
I1
aI0
asV58a9a8631978bbde22000003
p95
(lp96
I3
aI4
aI2
aI6
aI7
aI5
aI0
aI1
aI8
aI9
asV58b576b622d3005309000008
p97
(lp98
I5
aI3
aI2
aI1
aI6
aI0
aI4
asV58bbbe6822d300530900001a
p99
(lp100
I0
aI1
aI2
aI3
asV58a94483ee23e0236b000003
p101
(lp102
I0
aI5
aI3
aI8
aI7
aI1
aI6
aI4
aI9
aI10
aI2
asV588f220e3b87a8a73800000d
p103
(lp104
I0
asV58a327bf60087bc10a000011
p105
(lp106
I1
aI2
aI0
asV58bcabc702b8c6095300000e
p107
(lp108
I0
aI1
asV58a87bd338c171fb5b000005
p109
(lp110
I0
aI1
aI3
aI2
asV58bbc0fc22d300530900001c
p111
(lp112
I4
aI5
aI3
aI2
aI0
aI1
asV58a5a51060087bc10a000021
p113
(lp114
I2
aI5
aI0
aI3
aI4
aI1
asV589a246878275d0c4a000030
p115
(lp116
I4
aI3
aI7
aI5
aI0
aI6
aI2
aI8
aI9
aI1
asV58bc696b02b8c60953000005
p117
(lp118
I2
aI1
aI0
aI3
aI5
aI4
asV5886222a3b87a8a738000005
p119
(lp120
I4
aI3
aI5
aI2
aI1
aI0
asV58a6d89660087bc10a00002b
p121
(lp122
I2
aI1
aI9
aI7
aI4
aI10
aI6
aI3
aI8
aI5
aI0
asV589a246578275d0c4a00002e
p123
(lp124
I0
aI4
aI3
aI5
aI1
aI2
asV5895db407d9090f35300000e
p125
(lp126
I3
aI1
aI4
aI0
aI2
asV589c334e78275d0c4a00003d
p127
(lp128
I0
aI2
aI3
aI4
aI1
aI5
aI6
asV589644c478275d0c4a00000d
p129
(lp130
I1
aI0
asV587d36ab859bf79568000001
p131
(lp132
I0
asV5887fe7d3b87a8a738000008
p133
(lp134
I1
aI0
asV58bca3eb02b8c6095300000d
p135
(lp136
I0
aI1
aI2
asV589dee3778275d0c4a000050
p137
(lp138
I4
aI1
aI2
aI3
aI0
asV588485bbe56acf517600000b
p139
(lp140
I0
aI6
aI4
aI8
aI5
aI3
aI1
aI7
aI2
asV58bca08702b8c6095300000a
p141
(lp142
I0
asV58b9585c22d3005309000010
p143
(lp144
I3
aI5
aI9
aI4
aI12
aI6
aI8
aI10
aI2
aI0
aI11
aI7
aI1
asV58a57f9460087bc10a00001f
p145
(lp146
I14
aI9
aI10
aI11
aI8
aI5
aI7
aI15
aI6
aI4
aI3
aI2
aI12
aI16
aI0
aI1
aI17
aI13
asV58b95ea222d3005309000011
p147
(lp148
I9
aI4
aI8
aI3
aI1
aI10
aI7
aI6
aI5
aI0
aI2
asV5895ec5e7d9090f353000015
p149
(lp150
I6
aI3
aI4
aI5
aI2
aI7
aI0
aI1
asV58b52c8822d3005309000001
p151
(lp152
I0
aI4
aI5
aI7
aI1
aI3
aI6
aI2
asV58bbb8ae22d3005309000018
p153
(lp154
I4
aI5
aI3
aI2
aI1
aI0
asV5883a727e56acf5176000001
p155
(lp156
I0
asV58a5b1fe60087bc10a000024
p157
(lp158
I0
aI2
aI5
aI4
aI3
aI1
asV58a22eb460087bc10a000001
p159
(lp160
I0
aI1
asV58a342e760087bc10a00001c
p161
(lp162
I1
aI2
aI3
aI4
aI5
aI6
aI0
asV58bc8e7a02b8c60953000007
p163
(lp164
I0
aI2
aI1
asV5895e2567d9090f353000011
p165
(lp166
I2
aI4
aI6
aI5
aI3
aI1
aI0
asV58bcb83d02b8c6095300000f
p167
(lp168
I1
aI0
aI2
asV58850e50e56acf5176000013
p169
(lp170
I0
asV58a337af60087bc10a000016
p171
(lp172
I0
aI2
aI1
aI3
asV58a5924060087bc10a000020
p173
(lp174
I0
aI3
aI4
aI2
aI1
asV588800f43b87a8a738000009
p175
(lp176
I1
aI0
asV58848822e56acf517600000c
p177
(lp178
I3
aI7
aI1
aI6
aI5
aI4
aI2
aI0
asV587e1bfdfc7e8dd84f000002
p179
(lp180
I1
aI0
asV589a245878275d0c4a000025
p181
(lp182
I7
aI13
aI12
aI11
aI8
aI14
aI15
aI4
aI10
aI9
aI6
aI5
aI3
aI2
aI1
aI0
asV5898500478275d0c4a000017
p183
(lp184
I1
aI5
aI4
aI3
aI2
aI0
asV589480b47d9090f353000007
p185
(lp186
I1
aI0
asV58bc8e5002b8c60953000006
p187
(lp188
I0
aI1
asV58a0a28a78275d0c4a000051
p189
(lp190
I2
aI1
aI0
aI3
asV58847e36e56acf5176000009
p191
(lp192
I9
aI4
aI8
aI6
aI7
aI5
aI3
aI2
aI1
aI0
asV58963b0278275d0c4a00000c
p193
(lp194
I0
aI1
asV5880b812c872c95565000006
p195
(lp196
I2
aI6
aI4
aI5
aI3
aI8
aI0
aI7
aI1
asV58a5add260087bc10a000022
p197
(lp198
I1
aI3
aI2
aI0
asV58b56fe422d3005309000007
p199
(lp200
I0
aI2
aI3
aI4
aI1
as.