ccopy_reg
_reconstructor
p0
(c__main__
RankSVM
p1
c__builtin__
object
p2
Ntp3
Rp4
(dp5
S'model'
p6
g0
(csklearn.svm.classes
LinearSVC
p7
g2
Ntp8
Rp9
(dp10
S'loss'
p11
S'squared_hinge'
p12
sS'C'
p13
F1.0
sS'max_iter'
p14
I1000
sS'verbose'
p15
I0
sS'fit_intercept'
p16
I01
sS'random_state'
p17
NsS'classes_'
p18
cnumpy.core.multiarray
_reconstruct
p19
(cnumpy
ndarray
p20
(I0
tp21
S'b'
p22
tp23
Rp24
(I1
(I2
tp25
cnumpy
dtype
p26
(S'f8'
p27
I0
I1
tp28
Rp29
(I3
S'<'
p30
NNNI-1
I-1
I0
tp31
bI00
S'\x00\x00\x00\x00\x00\x00\xf0\xbf\x00\x00\x00\x00\x00\x00\xf0?'
p32
tp33
bsS'n_iter_'
p34
cnumpy.core.multiarray
scalar
p35
(g26
(S'i4'
p36
I0
I1
tp37
Rp38
(I3
S'<'
p39
NNNI-1
I-1
I0
tp40
bS'\xe8\x03\x00\x00'
p41
tp42
Rp43
sS'intercept_scaling'
p44
I1
sS'penalty'
p45
S'l2'
p46
sS'multi_class'
p47
S'ovr'
p48
sS'coef_'
p49
g19
(g20
(I0
tp50
g22
tp51
Rp52
(I1
(I1
I3
tp53
g29
I00
S'\xee\t\xd5\xc3\xdd\xd8\xcb?`\xe7P\xe1\xb6\x03\xb0\xbfl\x9bP\xe1\xb6\x03\xb0?'
p54
tp55
bsS'_sklearn_version'
p56
S'0.19.1'
p57
sS'dual'
p58
I01
sS'tol'
p59
F0.0001
sS'intercept_'
p60
g19
(g20
(I0
tp61
g22
tp62
Rp63
(I1
(I1
tp64
g29
I00
S'\xbaPc\xfb\x9f?\xa0\xbf'
p65
tp66
bsS'class_weight'
p67
Nsbsb.