ccopy_reg
_reconstructor
p0
(csklearn.svm.classes
LinearSVC
p1
c__builtin__
object
p2
Ntp3
Rp4
(dp5
S'loss'
p6
S'squared_hinge'
p7
sS'C'
p8
F1.0
sS'max_iter'
p9
I1000
sS'verbose'
p10
I0
sS'fit_intercept'
p11
I01
sS'random_state'
p12
NsS'classes_'
p13
cnumpy.core.multiarray
_reconstruct
p14
(cnumpy
ndarray
p15
(I0
tp16
S'b'
p17
tp18
Rp19
(I1
(I2
tp20
cnumpy
dtype
p21
(S'f8'
p22
I0
I1
tp23
Rp24
(I3
S'<'
p25
NNNI-1
I-1
I0
tp26
bI00
S'\x00\x00\x00\x00\x00\x00\xf0\xbf\x00\x00\x00\x00\x00\x00\xf0?'
p27
tp28
bsS'n_iter_'
p29
cnumpy.core.multiarray
scalar
p30
(g21
(S'i4'
p31
I0
I1
tp32
Rp33
(I3
S'<'
p34
NNNI-1
I-1
I0
tp35
bS'\xe8\x03\x00\x00'
p36
tp37
Rp38
sS'intercept_scaling'
p39
I1
sS'penalty'
p40
S'l2'
p41
sS'multi_class'
p42
S'ovr'
p43
sS'coef_'
p44
g14
(g15
(I0
tp45
g17
tp46
Rp47
(I1
(I1
I3
tp48
g24
I00
S'\x9b6\xb7[(\xcf\xcb?4"f\xe2j@\xaf\xbf\xaa\x85e\xe2j@\xaf?'
p49
tp50
bsS'_sklearn_version'
p51
S'0.19.1'
p52
sS'dual'
p53
I01
sS'tol'
p54
F0.0001
sS'intercept_'
p55
g14
(g15
(I0
tp56
g17
tp57
Rp58
(I1
(I1
tp59
g24
I00
S'\xdb\xb2\x1b\x985L\xa0\xbf'
p60
tp61
bsS'class_weight'
p62
Nsb.