(lp0
I0
aI16
aI31
aI39
aI45
aI56
aI57
aI79
aI90
aI112
aI120
aI141
aI158
aI167
aI171
aI196
aI245
aI246
aI267
aI283
aI295
aI300
aI314
aI330
aI347
aI358
aI365
aI384
aI390
aI400
aI401
aI413
aI427
aI437
aI458
aI466
aI485
aI500
aI529
aI557
aI574
aI582
aI587
aI591
aI616
aI627
aI638
aI667
aI674
aI693
aI724
aI747
aI754
aI773
aI795
aI806
aI822
aI856
aI873
aI889
aI904
aI930
aI935
aI982
aI1018
aI1019
aI1022
aI1064
aI1069
aI1076
aI1079
aI1085
aI1105
aI1120
aI1150
aI1173
aI1175
aI1207
aI1217
aI1227
aI1240
aI1242
aI1248
aI1263
aI1273
aI1296
aI1313
aI1331
aI1368
aI1411
aI1412
aI1438
aI1448
aI1468
aI1490
aI1503
aI1504
aI1520
aI1566
aI1585
aI1596
aI1611
aI1628
aI1640
aI1663
aI1672
aI1702
aI1711
aI1722
aI1725
aI1727
aI1760
aI1770
aI1780
aI1794
aI1804
aI1821
aI1840
aI1885
aI1904
aI1906
aI1910
aI1929
aI1935
aI1944
aI1948
aI1976
aI1985
aI2002
aI2055
aI2059
aI2060
aI2076
aI2083
aI2086
aI2089
aI2102
aI2107
aI2120
aI2123
aI2133
aI2146
aI2156
aI2277
aI2289
aI2299
aI2306
aI2314
aI2316
aI2330
aI2356
aI2389
aI2395
aI2406
aI2417
aI2435
aI2448
aI2458
aI2470
aI2491
aI2514
aI2537
aI2576
aI2584
aI2603
aI2627
aI2659
aI2670
aI2689
aI2698
aI2701
aI2708
aI2726
aI2754
aI2770
aI2772
aI2776
aI2809
aI2826
aI2850
aI2861
aI2880
aI2891
aI2916
aI2919
aI2924
aI2952
aI2973
aI2983
aI2987
aI3000
aI3025
aI3032
aI3048
aI3054
aI3064
aI3071
aI3076
aI3088
aI3096
aI3102
aI3131
aI3168
aI3171
aI3179
aI3189
aI3197
aI3215
aI3244
aI3261
aI3263
aI3273
aI3284
aI3319
aI3332
aI3344
aI3354
aI3382
aI3384
aI3390
aI3393
aI3397
aI3411
aI3414
aI3419
aI3425
aI3433
aI3444
aI3445
aI3502
aI3523
aI3576
aI3592
aI3622
aI3635
aI3646
aI3648
aI3660
aI3692
aI3700
aI3704
aI3710
aI3712
aI3737
aI3753
aI3772
aI3779
aI3790
aI3793
aI3799
aI3805
aI3810
aI3821
aI3825
aI3827
aI3841
aI3854
aI3858
aI3861
aI3870
aI3878
aI3923
aI3942
aI3949
aI3967
aI3989
aI4029
aI4046
aI4048
aI4054
aI4067
aI4071
aI4078
aI4111
aI4117
aI4126
aI4132
aI4151
aI4163
aI4171
aI4190
aI4198
aI4214
aI4218
aI4226
aI4246
aI4250
aI4258
aI4277
aI4293
aI4310
aI4317
aI4331
aI4342
aI4354
aI4364
aI4401
aI4441
aI4455
aI4479
aI4484
aI4488
aI4496
aI4517
aI4523
aI4562
aI4578
aI4581
aI4588
aI4601
aI4608
aI4618
aI4630
aI4646
aI4667
aI4668
aI4673
aI4684
aI4691
aI4700
aI4710
aI4722
aI4728
aI4733
aI4743
aI4771
aI4783
aI4789
aI4808
aI4826
aI4849
aI4853
aI4858
aI4964
aI4967
aI4987
aI4990
aI4995
aI5008
aI5013
aI5034
aI5056
aI5066
aI5073
aI5089
aI5092
aI5104
aI5112
aI5116
aI5129
aI5135
aI5148
aI5152
aI5158
aI5162
aI5169
aI5200
aI5208
aI5214
aI5227
aI5259
aI5278
aI5280
aI5299
aI5304
aI5306
aI5344
aI5350
aI5362
aI5378
aI5385
aI5388
aI5408
aI5412
aI5420
aI5427
aI5453
aI5465
aI5499
aI5516
aI5522
aI5534
aI5538
aI5562
aI5578
aI5585
aI5590
aI5597
aI5606
aI5632
aI5641
aI5685
aI5691
aI5708
aI5716
aI5722
aI5730
aI5744
aI5756
aI5766
aI5782
aI5814
aI5824
aI5833
aI5845
aI5847
aI5861
aI5892
aI5914
aI5949
aI5952
aI5955
aI5980
aI5993
aI6016
aI6040
aI6050
aI6053
aI6082
aI6113
aI6122
aI6142
aI6144
aI6155
aI6164
aI6172
aI6175
aI6183
aI6188
aI6199
aI6221
aI6226
aI6230
aI6243
aI6261
aI6290
aI6291
aI6299
aI6307
aI6321
aI6327
aI6357
aI6365
aI6377
aI6404
aI6435
aI6440
aI6458
aI6472
aI6486
aI6491
aI6506
aI6510
aI6529
aI6535
aI6541
aI6551
aI6557
aI6576
aI6600
aI6623
aI6638
aI6696
aI6726
aI6737
aI6747
aI6764
aI6794
aI6842
aI6852
aI6864
aI6869
aI6883
aI6885
aI6898
aI6917
aI6920
aI6924
aI6929
aI6938
aI6954
aI6967
aI6978
aI7014
aI7020
aI7043
aI7047
aI7072
aI7080
aI7095
aI7121
aI7132
aI7139
aI7150
aI7174
aI7185
aI7190
aI7212
aI7246
aI7256
aI7274
aI7291
aI7295
aI7313
aI7321
aI7357
aI7375
aI7394
aI7408
aI7447
aI7457
aI7468
aI7480
aI7508
aI7529
aI7539
aI7548
aI7560
aI7586
aI7590
aI7611
aI7624
aI7657
aI7671
aI7682
aI7706
aI7725
aI7750
aI7756
aI7770
aI7777
aI7780
aI7784
aI7787
aI7811
aI7822
aI7838
aI7847
aI7871
aI7884
aI7893
aI7912
aI7920
aI7967
aI7978
aI8009
aI8017
aI8029
aI8055
aI8072
aI8084
aI8087
aI8098
aI8113
aI8129
aI8142
aI8160
aI8180
aI8214
aI8225
aI8253
aI8278
aI8283
aI8292
aI8302
aI8315
aI8323
aI8332
aI8334
aI8356
aI8373
aI8376
aI8386
aI8394
aI8407
aI8416
aI8421
aI8439
aI8447
aI8467
aI8485
aI8487
aI8493
aI8505
aI8510
aI8527
aI8564
aI8587
aI8608
aI8643
aI8664
aI8673
aI8677
aI8680
aI8699
aI8705
aI8712
aI8714
aI8725
aI8754
aI8768
aI8785
aI8788
aI8803
aI8812
aI8823
aI8841
aI8855
aI8856
aI8874
aI8877
aI8885
aI8891
aI8897
aI8904
aI8911
aI8925
aI8944
aI8952
aI8954
aI8961
aI8999
aI9007
aI9026
aI9073
aI9079
aI9090
aI9121
aI9133
aI9139
aI9141
aI9156
aI9166
aI9176
aI9219
aI9231
aI9236
aI9247
aI9251
aI9279
aI9311
aI9335
aI9350
aI9372
aI9377
aI9400
aI9411
aI9412
aI9445
aI9467
aI9479
aI9483
aI9497
aI9546
aI9566
aI9570
aI9576
aI9590
aI9603
aI9609
aI9626
aI9653
aI9677
aI9694
aI9704
aI9714
aI9735
aI9741
aI9749
aI9756
aI9764
aI9769
aI9770
aI9774
aI9789
aI9797
aI9807
aI9837
aI9871
aI9886
aI9894
aI9896
aI9900
aI9911
aI9918
aI9935
aI9946
aI9949
aI9967
aI9971
aI9978
aI9982
aI10024
aI10061
aI10088
aI10105
aI10111
aI10128
aI10141
aI10170
aI10184
aI10194
aI10214
aI10233
aI10237
aI10250
aI10268
aI10296
aI10363
aI10391
aI10413
aI10443
aI10450
aI10459
aI10468
aI10474
aI10480
aI10484
aI10492
aI10497
aI10534
aI10539
aI10543
aI10545
aI10550
aI10566
aI10593
aI10599
aI10602
aI10611
aI10622
aI10672
aI10677
aI10694
aI10706
aI10715
aI10718
aI10727
aI10740
aI10771
aI10775
aI10781
aI10797
aI10811
aI10820
aI10836
aI10847
aI10853
aI10855
aI10865
aI10878
aI10886
aI10894
aI10924
aI10972
aI10990
aI11011
aI11028
aI11044
aI11075
aI11092
aI11100
aI11107
aI11137
aI11162
aI11177
aI11202
aI11213
aI11221
aI11226
aI11231
aI11246
aI11260
aI11273
aI11278
aI11318
aI11350
aI11372
aI11373
aI11399
aI11411
aI11436
aI11443
aI11455
aI11480
aI11486
aI11519
aI11521
aI11527
aI11542
aI11567
aI11575
aI11586
aI11590
aI11603
aI11615
aI11622
aI11649
aI11663
aI11688
aI11690
aI11692
aI11709
aI11717
aI11729
aI11738
aI11748
aI11751
aI11756
aI11778
aI11791
aI11803
aI11858
aI11861
aI11867
aI11892
aI11910
aI11922
aI11932
aI11948
aI11961
aI11976
aI12047
aI12053
aI12065
aI12068
aI12093
aI12101
aI12103
aI12129
aI12139
aI12177
aI12183
aI12198
aI12229
aI12241
aI12247
aI12270
aI12307
aI12320
aI12332
aI12336
aI12341
aI12347
aI12353
aI12367
aI12380
aI12391
aI12398
aI12403
aI12407
aI12420
aI12447
aI12465
aI12486
aI12500
aI12507
aI12525
aI12558
aI12597
aI12610
aI12657
aI12664
aI12668
aI12680
aI12683
aI12718
aI12720
aI12734
aI12747
aI12759
aI12781
aI12794
aI12821
aI12831
aI12842
aI12846
aI12860
aI12871
aI12908
aI12926
aI12927
aI12974
aI12975
aI12990
aI13024
aI13049
aI13065
aI13079
aI13087
aI13099
aI13102
aI13106
aI13121
aI13144
aI13145
aI13146
aI13205
aI13228
aI13236
aI13257
aI13287
aI13295
aI13335
aI13351
aI13365
aI13369
aI13401
aI13406
aI13412
aI13423
aI13427
aI13435
aI13455
aI13458
aI13461
aI13483
aI13498
aI13500
aI13506
aI13514
aI13524
aI13534
aI13545
aI13550
aI13560
aI13579
aI13602
aI13606
aI13642
aI13658
aI13676
aI13684
aI13686
aI13700
aI13716
aI13717
aI13729
aI13733
aI13737
aI13748
aI13769
aI13802
aI13808
aI13821
aI13845
aI13849
aI13858
aI13864
aI13865
aI13880
aI13885
aI13889
aI13897
aI13900
aI13936
aI13953
aI13967
aI13972
aI13987
aI13999
aI14006
aI14026
aI14054
aI14060
aI14068
aI14089
aI14099
aI14109
aI14131
aI14156
aI14159
aI14165
aI14175
aI14180
aI14182
aI14191
aI14194
aI14263
aI14266
aI14278
aI14290
aI14326
aI14340
aI14343
aI14378
aI14387
aI14401
aI14408
aI14452
aI14462
aI14483
aI14507
aI14523
aI14531
aI14565
aI14581
aI14644
aI14654
aI14683
aI14694
aI14750
aI14760
aI14764
aI14782
aI14788
aI14797
aI14823
aI14851
aI14861
aI14866
aI14884
aI14896
aI14907
aI14929
aI14938
aI14943
aI14946
aI14956
aI14979
aI15007
aI15022
aI15029
aI15046
aI15070
aI15081
aI15082
aI15098
aI15118
aI15125
aI15137
aI15154
aI15173
aI15177
aI15189
aI15194
aI15201
aI15245
aI15269
aI15287
aI15290
aI15313
aI15315
aI15347
aI15388
aI15428
aI15454
aI15458
aI15463
aI15487
aI15502
aI15511
aI15514
aI15523
aI15535
aI15538
aI15547
aI15572
aI15600
aI15604
aI15615
aI15634
aI15639
aI15649
aI15658
aI15703
aI15712
aI15741
aI15743
aI15761
aI15776
aI15777
aI15782
aI15804
aI15843
aI15847
aI15867
aI15883
aI15886
aI15887
aI15895
aI15901
aI15907
aI15920
aI15928
aI15946
aI15976
aI15987
aI15998
aI16031
aI16048
aI16051
aI16067
aI16099
aI16110
aI16115
aI16131
aI16150
aI16157
aI16162
aI16180
aI16182
aI16189
aI16207
aI16224
aI16238
aI16246
aI16252
aI16282
aI16374
aI16386
aI16388
aI16401
aI16418
aI16428
aI16437
aI16461
aI16469
aI16495
aI16527
aI16543
aI16560
aI16587
aI16605
aI16622
aI16634
aI16639
aI16643
aI16647
aI16652
aI16656
aI16666
aI16682
aI16689
aI16696
aI16699
aI16720
aI16724
aI16725
aI16730
aI16733
aI16736
aI16739
aI16750
aI16776
aI16804
aI16821
aI16823
aI16835
aI16848
aI16857
aI16889
aI16919
aI16942
aI17012
aI17025
aI17032
aI17053
aI17056
aI17064
aI17076
aI17091
aI17107
aI17112
aI17123
aI17149
aI17166
aI17168
aI17196
aI17202
aI17230
aI17234
aI17245
aI17249
aI17276
aI17293
aI17307
aI17322
aI17324
aI17347
aI17367
aI17393
aI17401
aI17407
aI17419
aI17434
aI17436
aI17437
aI17496
aI17518
aI17536
aI17540
aI17545
aI17546
aI17555
aI17601
aI17602
aI17605
aI17631
aI17643
aI17657
aI17696
aI17707
aI17725
aI17765
aI17785
aI17793
aI17800
aI17818
aI17826
aI17835
aI17870
aI17883
aI17885
aI17910
aI17926
aI17944
aI17953
aI17965
aI17978
aI18005
aI18014
aI18032
aI18051
aI18060
aI18093
aI18126
aI18153
aI18164
aI18174
aI18186
aI18196
aI18198
aI18203
aI18210
aI18220
aI18223
aI18276
aI18278
aI18311
aI18318
aI18331
aI18365
aI18391
aI18404
aI18426
aI18437
aI18446
aI18471
aI18473
aI18517
aI18528
aI18536
aI18544
aI18545
aI18554
aI18567
aI18578
aI18596
aI18620
aI18645
aI18655
aI18667
aI18684
aI18706
aI18731
aI18763
aI18776
aI18792
aI18799
aI18806
aI18825
aI18830
aI18839
aI18857
aI18864
aI18887
aI18895
aI18911
aI18925
aI18938
aI18972
aI18973
aI18978
aI18987
aI19001
aI19009
aI19021
aI19032
aI19046
aI19090
aI19095
aI19101
aI19144
aI19148
aI19155
aI19186
aI19228
aI19247
aI19258
aI19263
aI19277
aI19295
aI19304
aI19325
aI19343
aI19349
aI19389
aI19408
aI19450
aI19456
aI19481
aI19489
aI19521
aI19535
aI19563
aI19574
aI19578
aI19583
aI19598
aI19606
aI19608
aI19642
aI19646
aI19648
aI19652
aI19657
aI19672
aI19673
aI19684
aI19693
aI19723
aI19737
aI19744
aI19747
aI19753
aI19771
aI19792
aI19805
aI19816
aI19832
aI19855
aI19874
aI19894
aI19900
aI19927
aI19938
aI19941
aI19968
aI19991
aI20004
aI20007
aI20021
aI20032
aI20041
aI20076
aI20107
aI20112
aI20136
aI20145
aI20159
aI20182
aI20187
aI20194
aI20198
aI20207
aI20227
aI20245
aI20251
aI20260
aI20277
aI20292
aI20301
aI20305
aI20334
aI20348
aI20382
aI20403
aI20407
aI20414
aI20429
aI20445
aI20470
aI20474
aI20498
aI20502
aI20515
aI20538
aI20541
aI20547
aI20548
aI20569
aI20581
aI20584
aI20600
aI20609
aI20626
aI20640
aI20645
aI20648
aI20655
aI20668
aI20676
aI20684
aI20694
aI20701
aI20704
aI20720
aI20745
aI20772
aI20789
aI20809
aI20816
aI20822
aI20832
aI20835
aI20856
aI20860
aI20863
aI20869
aI20875
aI20889
aI20913
aI20923
aI20940
aI20975
aI21002
aI21006
aI21015
aI21019
aI21044
aI21066
aI21083
aI21107
aI21118
aI21139
aI21149
aI21157
aI21159
aI21180
aI21192
aI21208
aI21216
aI21229
aI21255
aI21264
aI21276
aI21296
aI21320
aI21325
aI21330
aI21353
aI21364
aI21370
aI21399
aI21408
aI21410
aI21416
aI21432
aI21447
aI21451
aI21477
aI21479
aI21488
aI21531
aI21532
aI21535
aI21541
aI21554
aI21571
aI21588
aI21600
aI21613
aI21618
aI21628
aI21672
aI21691
aI21700
aI21706
aI21720
aI21724
aI21752
aI21770
aI21778
aI21787
aI21814
aI21831
aI21847
aI21854
aI21859
aI21884
aI21918
aI21945
aI21948
aI21955
aI21970
aI21975
aI21978
aI21988
aI21993
aI22010
aI22063
aI22092
aI22104
aI22112
aI22120
aI22122
aI22141
aI22153
aI22161
aI22171
aI22180
aI22189
aI22197
aI22216
aI22220
aI22244
aI22257
aI22259
aI22262
aI22267
aI22284
aI22287
aI22299
aI22303
aI22316
aI22327
aI22343
aI22375
aI22384
aI22392
aI22399
aI22404
aI22414
aI22446
aI22469
aI22478
aI22496
aI22501
aI22540
aI22559
aI22563
aI22566
aI22576
aI22607
aI22617
aI22627
aI22741
aI22753
aI22757
aI22763
aI22806
aI22833
aI22846
aI22884
aI22898
aI22908
aI22914
aI22925
aI22929
aI22942
aI22955
aI22960
aI22976
aI22983
aI22994
aI23001
aI23004
aI23037
aI23051
aI23062
aI23075
aI23085
aI23094
aI23098
aI23101
aI23121
aI23125
aI23139
aI23159
aI23180
aI23207
aI23214
aI23241
aI23284
aI23294
aI23298
aI23308
aI23327
aI23332
aI23340
aI23342
aI23352
aI23364
aI23373
aI23392
aI23397
aI23403
aI23421
aI23444
aI23466
aI23480
aI23517
aI23568
aI23569
aI23575
aI23593
aI23608
aI23613
aI23615
aI23627
aI23648
aI23649
aI23663
aI23698
aI23705
aI23740
aI23762
aI23779
aI23796
aI23811
aI23823
aI23837
aI23850
aI23871
aI23872
aI23895
aI23907
aI23921
aI23927
aI23941
aI23946
aI23966
aI23983
aI23996
aI24000
aI24016
aI24066
aI24086
aI24092
aI24102
aI24115
aI24120
aI24128
aI24139
aI24159
aI24170
aI24173
aI24175
aI24213
aI24228
aI24241
aI24242
aI24282
aI24316
aI24363
aI24370
aI24394
aI24400
aI24408
aI24427
aI24429
aI24454
aI24472
aI24483
aI24498
aI24500
aI24524
aI24539
aI24553
aI24566
aI24590
aI24598
aI24614
aI24642
aI24670
aI24679
aI24688
aI24714
aI24730
aI24734
aI24776
aI24783
aI24791
aI24827
aI24839
aI24859
aI24871
aI24884
aI24887
aI24901
aI24907
aI24914
aI24922
aI24947
aI24970
aI24988
aI24998
aI25006
aI25029
aI25039
aI25045
aI25048
aI25050
aI25058
aI25080
aI25085
aI25133
aI25145
aI25157
aI25174
aI25193
aI25197
aI25222
aI25225
aI25242
aI25253
aI25258
aI25272
aI25281
aI25286
aI25307
aI25317
aI25344
aI25364
aI25437
aI25462
aI25473
aI25481
aI25500
aI25504
aI25511
aI25525
aI25535
aI25540
aI25554
aI25587
aI25612
aI25629
aI25637
aI25640
aI25648
aI25652
aI25657
aI25681
aI25689
aI25704
aI25723
aI25733
aI25740
aI25743
aI25745
aI25751
aI25782
aI25788
aI25791
aI25838
aI25855
aI25876
aI25882
aI25897
aI25914
aI25918
aI25975
aI25982
aI25991
aI25994
aI26034
aI26049
aI26059
aI26090
aI26091
aI26092
aI26137
aI26146
aI26165
aI26170
aI26182
aI26201
aI26224
aI26237
aI26240
aI26252
aI26258
aI26264
aI26306
aI26308
aI26320
aI26337
aI26344
aI26360
aI26363
aI26376
aI26408
aI26414
aI26424
aI26450
aI26455
aI26473
aI26485
aI26502
aI26513
aI26515
aI26518
aI26524
aI26549
aI26575
aI26619
aI26625
aI26629
aI26633
aI26646
aI26651
aI26656
aI26672
aI26684
aI26692
aI26694
aI26715
aI26718
aI26747
aI26754
aI26772
aI26775
aI26803
aI26806
aI26851
aI26859
aI26863
aI26952
aI26961
aI26963
aI27007
aI27021
aI27046
aI27051
aI27068
aI27094
aI27100
aI27135
aI27159
aI27165
aI27197
aI27205
aI27222
aI27228
aI27232
aI27253
aI27275
aI27314
aI27345
aI27351
aI27355
aI27397
aI27401
aI27407
aI27418
aI27446
aI27453
aI27463
aI27470
aI27498
aI27531
aI27576
aI27584
aI27597
aI27619
aI27644
aI27667
aI27674
aI27682
aI27686
aI27696
aI27743
aI27778
aI27784
aI27792
aI27805
aI27815
aI27819
aI27854
aI27862
aI27865
aI27906
aI27911
aI27920
aI27922
aI27925
aI27952
aI27959
aI27971
aI27998
aI28002
aI28006
aI28031
aI28075
aI28079
aI28087
aI28128
aI28130
aI28162
aI28193
aI28199
aI28206
aI28208
aI28214
aI28223
aI28227
aI28231
aI28234
aI28238
aI28240
aI28242
aI28251
aI28275
aI28281
aI28313
aI28339
aI28352
aI28390
aI28441
aI28447
aI28496
aI28502
aI28531
aI28582
aI28596
aI28601
aI28621
aI28641
aI28664
aI28670
aI28671
aI28691
aI28715
aI28721
aI28725
aI28730
aI28780
aI28809
aI28842
aI28848
aI28870
aI28893
aI28911
aI28937
aI28941
aI28952
aI28963
aI28977
aI29023
aI29026
aI29041
aI29073
aI29114
aI29115
aI29156
aI29161
aI29168
aI29180
aI29181
aI29187
aI29191
aI29208
aI29238
aI29246
aI29255
aI29280
aI29300
aI29304
aI29312
aI29316
aI29323
aI29330
aI29349
aI29368
aI29376
aI29391
aI29398
aI29403
aI29446
aI29457
aI29478
aI29486
aI29503
aI29510
aI29525
aI29538
aI29577
aI29590
aI29628
aI29635
aI29646
aI29654
aI29660
aI29670
aI29699
aI29715
aI29719
aI29721
aI29750
aI29781
aI29795
aI29825
aI29830
aI29836
aI29852
aI29877
aI29885
aI29894
aI29896
aI29902
aI29909
aI29914
aI29942
aI29965
aI29978
aI29989
aI30009
aI30035
aI30082
aI30088
aI30121
aI30149
aI30157
aI30175
aI30179
aI30194
aI30207
aI30216
aI30262
aI30272
aI30276
aI30280
aI30308
aI30316
aI30319
aI30355
aI30360
aI30371
aI30379
aI30392
aI30420
aI30430
aI30448
aI30466
aI30489
aI30495
aI30506
aI30520
aI30535
aI30556
aI30572
aI30596
aI30602
aI30603
aI30616
aI30621
aI30629
aI30637
aI30644
aI30651
aI30684
aI30697
aI30706
aI30759
aI30773
aI30780
aI30784
aI30820
aI30841
aI30850
aI30913
aI30931
aI30941
aI30944
aI30973
aI30975
aI30979
aI30994
aI30998
aI31019
aI31032
aI31034
aI31041
aI31050
aI31064
aI31067
aI31105
aI31121
aI31126
aI31152
aI31170
aI31186
aI31192
aI31208
aI31211
aI31215
aI31235
aI31274
aI31284
aI31302
aI31308
aI31314
aI31334
aI31338
aI31356
aI31359
aI31364
aI31367
aI31386
aI31399
aI31406
aI31446
aI31448
aI31453
aI31515
aI31518
aI31521
aI31542
aI31553
aI31554
aI31558
aI31566
aI31571
aI31573
aI31584
aI31602
aI31606
aI31610
aI31612
aI31620
aI31651
aI31661
aI31671
aI31683
aI31696
aI31698
aI31728
aI31743
aI31746
aI31768
aI31785
aI31823
aI31839
aI31856
aI31865
aI31878
aI31925
aI31928
aI31933
aI31936
aI31964
aI31969
aI31980
aI31986
aI31996
aI32016
aI32042
aI32044
aI32061
aI32063
aI32086
aI32104
aI32108
aI32122
aI32134
aI32139
aI32148
aI32154
aI32169
aI32216
aI32218
aI32241
aI32255
aI32277
aI32284
aI32289
aI32323
aI32337
aI32343
aI32375
aI32387
aI32403
aI32409
aI32412
aI32417
aI32427
aI32430
aI32437
aI32459
aI32466
aI32470
aI32476
aI32483
aI32497
aI32526
aI32533
aI32538
aI32557
aI32568
aI32571
aI32572
aI32577
aI32595
aI32602
aI32619
aI32626
aI32629
aI32640
aI32650
aI32652
aI32659
aI32662
aI32683
aI32694
aI32698
aI32709
aI32720
aI32727
aI32735
aI32739
aI32748
aI32751
aI32773
aI32789
aI32802
aI32807
aI32808
aI32825
aI32829
aI32835
aI32839
aI32846
aI32866
aI32878
aI32882
aI32893
aI32926
aI32935
aI32967
aI32994
aI33026
aI33041
aI33054
aI33067
aI33077
aI33082
aI33095
aI33105
aI33120
aI33134
a.