(lp0
(I0
I16
I0
I240
tp1
a(I1
I15
I240
I450
tp2
a(I2
I8
I450
I506
tp3
a(I3
I6
I506
I536
tp4
a(I4
I11
I536
I646
tp5
a(I6
I22
I646
I1108
tp6
a(I7
I11
I1108
I1218
tp7
a(I8
I22
I1218
I1680
tp8
a(I9
I8
I1680
I1736
tp9
a(I10
I21
I1736
I2156
tp10
a(I11
I17
I2156
I2428
tp11
a(I12
I9
I2428
I2500
tp12
a(I13
I4
I2500
I2512
tp13
a(I14
I25
I2512
I3112
tp14
a(I15
I49
I3112
I5464
tp15
a(I17
I21
I5464
I5884
tp16
a(I18
I16
I5884
I6124
tp17
a(I19
I12
I6124
I6256
tp18
a(I20
I5
I6256
I6276
tp19
a(I21
I14
I6276
I6458
tp20
a(I22
I16
I6458
I6698
tp21
a(I23
I17
I6698
I6970
tp22
a(I24
I11
I6970
I7080
tp23
a(I25
I7
I7080
I7122
tp24
a(I26
I19
I7122
I7464
tp25
a(I27
I6
I7464
I7494
tp26
a(I28
I10
I7494
I7584
tp27
a(I30
I12
I7584
I7716
tp28
a(I31
I14
I7716
I7898
tp29
a(I32
I10
I7898
I7988
tp30
a(I33
I21
I7988
I8408
tp31
a(I34
I8
I8408
I8464
tp32
a(I35
I19
I8464
I8806
tp33
a(I36
I15
I8806
I9016
tp34
a(I37
I29
I9016
I9828
tp35
a(I38
I28
I9828
I10584
tp36
a(I39
I17
I10584
I10856
tp37
a(I40
I8
I10856
I10912
tp38
a(I41
I5
I10912
I10932
tp39
a(I42
I4
I10932
I10944
tp40
a(I43
I25
I10944
I11544
tp41
a(I44
I11
I11544
I11654
tp42
a(I45
I11
I11654
I11764
tp43
a(I46
I29
I11764
I12576
tp44
a(I47
I7
I12576
I12618
tp45
a(I48
I19
I12618
I12960
tp46
a(I49
I31
I12960
I13890
tp47
a(I50
I23
I13890
I14396
tp48
a(I51
I7
I14396
I14438
tp49
a(I52
I19
I14438
I14780
tp50
a(I53
I22
I14780
I15242
tp51
a(I54
I11
I15242
I15352
tp52
a(I55
I16
I15352
I15592
tp53
a(I56
I34
I15592
I16714
tp54
a(I57
I17
I16714
I16986
tp55
a(I58
I16
I16986
I17226
tp56
a(I59
I15
I17226
I17436
tp57
a(I60
I26
I17436
I18086
tp58
a(I61
I5
I18086
I18106
tp59
a(I62
I47
I18106
I20268
tp60
a(I63
I36
I20268
I21528
tp61
a(I65
I3
I21528
I21534
tp62
a(I66
I42
I21534
I23256
tp63
a(I67
I5
I23256
I23276
tp64
a(I68
I7
I23276
I23318
tp65
a(I69
I3
I23318
I23324
tp66
a(I70
I6
I23324
I23354
tp67
a(I71
I20
I23354
I23734
tp68
a(I72
I15
I23734
I23944
tp69
a(I73
I30
I23944
I24814
tp70
a(I74
I23
I24814
I25320
tp71
a(I75
I2
I25320
I25322
tp72
a(I76
I32
I25322
I26314
tp73
a(I77
I10
I26314
I26404
tp74
a(I78
I10
I26404
I26494
tp75
a(I79
I13
I26494
I26650
tp76
a(I80
I2
I26650
I26652
tp77
a(I81
I6
I26652
I26682
tp78
a(I82
I15
I26682
I26892
tp79
a(I83
I10
I26892
I26982
tp80
a(I84
I23
I26982
I27488
tp81
a(I85
I17
I27488
I27760
tp82
a(I86
I18
I27760
I28066
tp83
a(I87
I37
I28066
I29398
tp84
a(I88
I43
I29398
I31204
tp85
a(I89
I1
I31204
I31204
tp86
a(I90
I26
I31204
I31854
tp87
a(I91
I10
I31854
I31944
tp88
a(I92
I20
I31944
I32324
tp89
a(I93
I22
I32324
I32786
tp90
a(I94
I13
I32786
I32942
tp91
a(I96
I16
I32942
I33182
tp92
a(I97
I46
I33182
I35252
tp93
a(I98
I19
I35252
I35594
tp94
a(I99
I11
I35594
I35704
tp95
a(I100
I15
I35704
I35914
tp96
a(I101
I17
I35914
I36186
tp97
a(I102
I12
I36186
I36318
tp98
a(I103
I23
I36318
I36824
tp99
a(I104
I9
I36824
I36896
tp100
a(I105
I30
I36896
I37766
tp101
a(I106
I9
I37766
I37838
tp102
a(I107
I11
I37838
I37948
tp103
a(I108
I3
I37948
I37954
tp104
a(I109
I2
I37954
I37956
tp105
a(I110
I33
I37956
I39012
tp106
a(I111
I10
I39012
I39102
tp107
a(I112
I10
I39102
I39192
tp108
a(I113
I14
I39192
I39374
tp109
a(I114
I10
I39374
I39464
tp110
a(I115
I17
I39464
I39736
tp111
a(I116
I19
I39736
I40078
tp112
a(I117
I45
I40078
I42058
tp113
a(I118
I19
I42058
I42400
tp114
a(I119
I2
I42400
I42402
tp115
a(I120
I4
I42402
I42414
tp116
a(I121
I19
I42414
I42756
tp117
a(I122
I6
I42756
I42786
tp118
a(I123
I9
I42786
I42858
tp119
a(I124
I4
I42858
I42870
tp120
a(I125
I28
I42870
I43626
tp121
a(I126
I9
I43626
I43698
tp122
a(I127
I17
I43698
I43970
tp123
a(I128
I53
I43970
I46726
tp124
a(I129
I4
I46726
I46738
tp125
a(I130
I1
I46738
I46738
tp126
a(I131
I16
I46738
I46978
tp127
a(I132
I7
I46978
I47020
tp128
a(I133
I3
I47020
I47026
tp129
a(I134
I3
I47026
I47032
tp130
a(I135
I13
I47032
I47188
tp131
a(I136
I5
I47188
I47208
tp132
a(I137
I13
I47208
I47364
tp133
a(I138
I3
I47364
I47370
tp134
a(I139
I10
I47370
I47460
tp135
a(I140
I13
I47460
I47616
tp136
a(I141
I10
I47616
I47706
tp137
a(I142
I121
I47706
I62226
tp138
a(I143
I12
I62226
I62358
tp139
a(I144
I10
I62358
I62448
tp140
a(I145
I7
I62448
I62490
tp141
a(I146
I8
I62490
I62546
tp142
a(I147
I2
I62546
I62548
tp143
a(I148
I14
I62548
I62730
tp144
a(I149
I26
I62730
I63380
tp145
a(I150
I33
I63380
I64436
tp146
a(I151
I6
I64436
I64466
tp147
a(I152
I11
I64466
I64576
tp148
a(I153
I11
I64576
I64686
tp149
a(I154
I18
I64686
I64992
tp150
a(I155
I13
I64992
I65148
tp151
a(I156
I10
I65148
I65238
tp152
a(I157
I12
I65238
I65370
tp153
a(I158
I21
I65370
I65790
tp154
a(I159
I23
I65790
I66296
tp155
a(I160
I23
I66296
I66802
tp156
a(I161
I39
I66802
I68284
tp157
a(I162
I8
I68284
I68340
tp158
a(I163
I19
I68340
I68682
tp159
a(I164
I24
I68682
I69234
tp160
a(I165
I32
I69234
I70226
tp161
a(I166
I11
I70226
I70336
tp162
a(I167
I19
I70336
I70678
tp163
a(I168
I9
I70678
I70750
tp164
a(I169
I3
I70750
I70756
tp165
a(I170
I7
I70756
I70798
tp166
a(I171
I18
I70798
I71104
tp167
a(I172
I28
I71104
I71860
tp168
a(I173
I16
I71860
I72100
tp169
a(I174
I2
I72100
I72102
tp170
a(I175
I4
I72102
I72114
tp171
a(I176
I33
I72114
I73170
tp172
a(I177
I17
I73170
I73442
tp173
a(I178
I24
I73442
I73994
tp174
a(I179
I11
I73994
I74104
tp175
a(I180
I19
I74104
I74446
tp176
a(I181
I11
I74446
I74556
tp177
a(I182
I25
I74556
I75156
tp178
a(I183
I3
I75156
I75162
tp179
a(I184
I5
I75162
I75182
tp180
a(I185
I28
I75182
I75938
tp181
a(I186
I21
I75938
I76358
tp182
a(I187
I10
I76358
I76448
tp183
a(I188
I4
I76448
I76460
tp184
a(I189
I13
I76460
I76616
tp185
a(I190
I25
I76616
I77216
tp186
a(I191
I7
I77216
I77258
tp187
a(I192
I16
I77258
I77498
tp188
a(I193
I6
I77498
I77528
tp189
a(I194
I10
I77528
I77618
tp190
a(I195
I7
I77618
I77660
tp191
a(I196
I5
I77660
I77680
tp192
a(I197
I12
I77680
I77812
tp193
a(I198
I8
I77812
I77868
tp194
a(I199
I6
I77868
I77898
tp195
a(I200
I29
I77898
I78710
tp196
a(I201
I37
I78710
I80042
tp197
a(I202
I3
I80042
I80048
tp198
a(I203
I8
I80048
I80104
tp199
a(I204
I10
I80104
I80194
tp200
a(I205
I8
I80194
I80250
tp201
a(I206
I18
I80250
I80556
tp202
a(I207
I29
I80556
I81368
tp203
a(I208
I17
I81368
I81640
tp204
a(I209
I2
I81640
I81642
tp205
a(I210
I10
I81642
I81732
tp206
a(I211
I11
I81732
I81842
tp207
a(I212
I35
I81842
I83032
tp208
a(I213
I13
I83032
I83188
tp209
a(I214
I12
I83188
I83320
tp210
a(I215
I10
I83320
I83410
tp211
a(I216
I28
I83410
I84166
tp212
a(I217
I2
I84166
I84168
tp213
a(I218
I6
I84168
I84198
tp214
a(I219
I3
I84198
I84204
tp215
a(I220
I4
I84204
I84216
tp216
a(I221
I14
I84216
I84398
tp217
a(I222
I3
I84398
I84404
tp218
a(I223
I5
I84404
I84424
tp219
a(I224
I6
I84424
I84454
tp220
a(I225
I8
I84454
I84510
tp221
a(I226
I11
I84510
I84620
tp222
a(I227
I1
I84620
I84620
tp223
a(I228
I57
I84620
I87812
tp224
a(I229
I21
I87812
I88232
tp225
a(I230
I53
I88232
I90988
tp226
a(I231
I16
I90988
I91228
tp227
a(I232
I30
I91228
I92098
tp228
a(I233
I13
I92098
I92254
tp229
a(I234
I11
I92254
I92364
tp230
a(I235
I2
I92364
I92366
tp231
a(I236
I12
I92366
I92498
tp232
a(I237
I32
I92498
I93490
tp233
a(I238
I8
I93490
I93546
tp234
a(I239
I4
I93546
I93558
tp235
a(I240
I6
I93558
I93588
tp236
a(I241
I2
I93588
I93590
tp237
a(I242
I25
I93590
I94190
tp238
a(I243
I16
I94190
I94430
tp239
a(I244
I19
I94430
I94772
tp240
a(I245
I7
I94772
I94814
tp241
a(I246
I11
I94814
I94924
tp242
a(I247
I3
I94924
I94930
tp243
a(I248
I6
I94930
I94960
tp244
a(I249
I6
I94960
I94990
tp245
a(I250
I5
I94990
I95010
tp246
a(I251
I11
I95010
I95120
tp247
a(I252
I4
I95120
I95132
tp248
a(I253
I2
I95132
I95134
tp249
a(I254
I14
I95134
I95316
tp250
a(I255
I13
I95316
I95472
tp251
a(I256
I4
I95472
I95484
tp252
a(I257
I3
I95484
I95490
tp253
a(I258
I9
I95490
I95562
tp254
a(I259
I8
I95562
I95618
tp255
a(I260
I45
I95618
I97598
tp256
a(I261
I19
I97598
I97940
tp257
a(I262
I7
I97940
I97982
tp258
a(I263
I18
I97982
I98288
tp259
a(I264
I22
I98288
I98750
tp260
a(I265
I40
I98750
I100310
tp261
a(I266
I17
I100310
I100582
tp262
a(I267
I2
I100582
I100584
tp263
a(I268
I6
I100584
I100614
tp264
a(I269
I13
I100614
I100770
tp265
a(I270
I4
I100770
I100782
tp266
a(I271
I7
I100782
I100824
tp267
a(I272
I33
I100824
I101880
tp268
a(I273
I6
I101880
I101910
tp269
a(I274
I9
I101910
I101982
tp270
a(I275
I6
I101982
I102012
tp271
a(I276
I19
I102012
I102354
tp272
a(I277
I12
I102354
I102486
tp273
a(I278
I8
I102486
I102542
tp274
a(I279
I19
I102542
I102884
tp275
a(I280
I8
I102884
I102940
tp276
a(I281
I16
I102940
I103180
tp277
a(I282
I4
I103180
I103192
tp278
a(I283
I8
I103192
I103248
tp279
a(I284
I20
I103248
I103628
tp280
a(I285
I4
I103628
I103640
tp281
a(I286
I8
I103640
I103696
tp282
a(I287
I19
I103696
I104038
tp283
a(I288
I16
I104038
I104278
tp284
a(I289
I17
I104278
I104550
tp285
a(I290
I7
I104550
I104592
tp286
a(I291
I14
I104592
I104774
tp287
a(I292
I11
I104774
I104884
tp288
a(I293
I12
I104884
I105016
tp289
a(I294
I10
I105016
I105106
tp290
a(I295
I37
I105106
I106438
tp291
a(I296
I40
I106438
I107998
tp292
a(I297
I14
I107998
I108180
tp293
a(I298
I24
I108180
I108732
tp294
a(I299
I5
I108732
I108752
tp295
a(I300
I4
I108752
I108764
tp296
a(I301
I8
I108764
I108820
tp297
a(I302
I21
I108820
I109240
tp298
a(I303
I6
I109240
I109270
tp299
a(I304
I39
I109270
I110752
tp300
a(I305
I16
I110752
I110992
tp301
a(I306
I3
I110992
I110998
tp302
a(I307
I7
I110998
I111040
tp303
a(I308
I13
I111040
I111196
tp304
a(I309
I7
I111196
I111238
tp305
a(I310
I10
I111238
I111328
tp306
a(I311
I12
I111328
I111460
tp307
a(I312
I16
I111460
I111700
tp308
a(I313
I21
I111700
I112120
tp309
a(I314
I1
I112120
I112120
tp310
a(I315
I5
I112120
I112140
tp311
a(I316
I11
I112140
I112250
tp312
a(I317
I7
I112250
I112292
tp313
a(I318
I9
I112292
I112364
tp314
a(I319
I10
I112364
I112454
tp315
a(I320
I12
I112454
I112586
tp316
a(I321
I6
I112586
I112616
tp317
a(I322
I5
I112616
I112636
tp318
a(I323
I10
I112636
I112726
tp319
a(I324
I28
I112726
I113482
tp320
a(I325
I12
I113482
I113614
tp321
a(I326
I6
I113614
I113644
tp322
a(I327
I19
I113644
I113986
tp323
a(I328
I18
I113986
I114292
tp324
a(I329
I23
I114292
I114798
tp325
a(I330
I4
I114798
I114810
tp326
a(I331
I5
I114810
I114830
tp327
a(I332
I106
I114830
I125960
tp328
a(I333
I3
I125960
I125966
tp329
a(I334
I20
I125966
I126346
tp330
a(I335
I3
I126346
I126352
tp331
a(I336
I5
I126352
I126372
tp332
a(I337
I13
I126372
I126528
tp333
a(I338
I5
I126528
I126548
tp334
a(I339
I21
I126548
I126968
tp335
a(I340
I22
I126968
I127430
tp336
a(I341
I10
I127430
I127520
tp337
a(I342
I7
I127520
I127562
tp338
a(I343
I16
I127562
I127802
tp339
a(I344
I3
I127802
I127808
tp340
a(I345
I12
I127808
I127940
tp341
a(I346
I8
I127940
I127996
tp342
a(I347
I4
I127996
I128008
tp343
a(I348
I13
I128008
I128164
tp344
a(I349
I6
I128164
I128194
tp345
a(I350
I13
I128194
I128350
tp346
a(I351
I4
I128350
I128362
tp347
a(I352
I6
I128362
I128392
tp348
a(I353
I4
I128392
I128404
tp349
a(I354
I7
I128404
I128446
tp350
a(I355
I31
I128446
I129376
tp351
a(I356
I8
I129376
I129432
tp352
a(I357
I6
I129432
I129462
tp353
a(I358
I13
I129462
I129618
tp354
a(I359
I32
I129618
I130610
tp355
a(I360
I19
I130610
I130952
tp356
a(I361
I2
I130952
I130954
tp357
a(I362
I19
I130954
I131296
tp358
a(I363
I5
I131296
I131316
tp359
a(I364
I2
I131316
I131318
tp360
a(I365
I38
I131318
I132724
tp361
a(I366
I6
I132724
I132754
tp362
a(I367
I12
I132754
I132886
tp363
a(I368
I16
I132886
I133126
tp364
a(I369
I7
I133126
I133168
tp365
a(I370
I3
I133168
I133174
tp366
a(I371
I20
I133174
I133554
tp367
a(I372
I4
I133554
I133566
tp368
a(I373
I8
I133566
I133622
tp369
a(I374
I7
I133622
I133664
tp370
a(I375
I26
I133664
I134314
tp371
a(I376
I12
I134314
I134446
tp372
a(I377
I34
I134446
I135568
tp373
a(I378
I17
I135568
I135840
tp374
a(I379
I6
I135840
I135870
tp375
a(I380
I12
I135870
I136002
tp376
a(I381
I4
I136002
I136014
tp377
a(I382
I24
I136014
I136566
tp378
a(I383
I16
I136566
I136806
tp379
a(I384
I7
I136806
I136848
tp380
a(I385
I5
I136848
I136868
tp381
a(I386
I7
I136868
I136910
tp382
a(I387
I9
I136910
I136982
tp383
a(I388
I26
I136982
I137632
tp384
a(I389
I9
I137632
I137704
tp385
a(I390
I44
I137704
I139596
tp386
a(I391
I6
I139596
I139626
tp387
a(I392
I17
I139626
I139898
tp388
a(I393
I8
I139898
I139954
tp389
a(I394
I6
I139954
I139984
tp390
a(I395
I8
I139984
I140040
tp391
a(I396
I14
I140040
I140222
tp392
a(I397
I12
I140222
I140354
tp393
a(I398
I10
I140354
I140444
tp394
a(I399
I16
I140444
I140684
tp395
a(I400
I32
I140684
I141676
tp396
a(I401
I10
I141676
I141766
tp397
a(I402
I9
I141766
I141838
tp398
a(I403
I12
I141838
I141970
tp399
a(I404
I2
I141970
I141972
tp400
a(I405
I14
I141972
I142154
tp401
a(I406
I31
I142154
I143084
tp402
a(I407
I22
I143084
I143546
tp403
a(I408
I35
I143546
I144736
tp404
a(I409
I3
I144736
I144742
tp405
a(I410
I3
I144742
I144748
tp406
a(I411
I25
I144748
I145348
tp407
a(I412
I13
I145348
I145504
tp408
a(I413
I23
I145504
I146010
tp409
a(I414
I24
I146010
I146562
tp410
a(I415
I10
I146562
I146652
tp411
a(I416
I3
I146652
I146658
tp412
a(I417
I29
I146658
I147470
tp413
a(I418
I31
I147470
I148400
tp414
a(I419
I9
I148400
I148472
tp415
a(I420
I20
I148472
I148852
tp416
a(I421
I2
I148852
I148854
tp417
a(I422
I11
I148854
I148964
tp418
a(I423
I9
I148964
I149036
tp419
a(I424
I8
I149036
I149092
tp420
a(I425
I3
I149092
I149098
tp421
a(I426
I8
I149098
I149154
tp422
a(I427
I5
I149154
I149174
tp423
a(I428
I11
I149174
I149284
tp424
a(I429
I22
I149284
I149746
tp425
a(I430
I5
I149746
I149766
tp426
a(I431
I4
I149766
I149778
tp427
a(I432
I13
I149778
I149934
tp428
a(I433
I18
I149934
I150240
tp429
a(I434
I29
I150240
I151052
tp430
a(I435
I1
I151052
I151052
tp431
a(I436
I8
I151052
I151108
tp432
a(I437
I8
I151108
I151164
tp433
a(I438
I14
I151164
I151346
tp434
a(I439
I6
I151346
I151376
tp435
a(I440
I30
I151376
I152246
tp436
a(I441
I8
I152246
I152302
tp437
a(I442
I12
I152302
I152434
tp438
a(I443
I27
I152434
I153136
tp439
a(I444
I31
I153136
I154066
tp440
a(I445
I5
I154066
I154086
tp441
a(I446
I18
I154086
I154392
tp442
a(I447
I14
I154392
I154574
tp443
a(I448
I14
I154574
I154756
tp444
a(I449
I5
I154756
I154776
tp445
a(I450
I15
I154776
I154986
tp446
a(I451
I4
I154986
I154998
tp447
a(I452
I19
I154998
I155340
tp448
a(I453
I6
I155340
I155370
tp449
a(I454
I6
I155370
I155400
tp450
a(I455
I10
I155400
I155490
tp451
a(I456
I6
I155490
I155520
tp452
a(I457
I19
I155520
I155862
tp453
a(I458
I24
I155862
I156414
tp454
a(I459
I23
I156414
I156920
tp455
a(I460
I15
I156920
I157130
tp456
a(I461
I58
I157130
I160436
tp457
a(I462
I30
I160436
I161306
tp458
a(I463
I11
I161306
I161416
tp459
a(I464
I10
I161416
I161506
tp460
a(I465
I17
I161506
I161778
tp461
a(I466
I30
I161778
I162648
tp462
a(I467
I48
I162648
I164904
tp463
a(I468
I10
I164904
I164994
tp464
a(I469
I12
I164994
I165126
tp465
a(I470
I5
I165126
I165146
tp466
a(I471
I14
I165146
I165328
tp467
a(I472
I2
I165328
I165330
tp468
a(I473
I13
I165330
I165486
tp469
a(I474
I19
I165486
I165828
tp470
a(I475
I3
I165828
I165834
tp471
a(I476
I4
I165834
I165846
tp472
a(I477
I5
I165846
I165866
tp473
a(I478
I9
I165866
I165938
tp474
a(I479
I16
I165938
I166178
tp475
a(I480
I13
I166178
I166334
tp476
a(I481
I11
I166334
I166444
tp477
a(I482
I36
I166444
I167704
tp478
a(I483
I6
I167704
I167734
tp479
a(I484
I23
I167734
I168240
tp480
a(I485
I4
I168240
I168252
tp481
a(I486
I25
I168252
I168852
tp482
a(I487
I8
I168852
I168908
tp483
a(I488
I15
I168908
I169118
tp484
a(I489
I26
I169118
I169768
tp485
a(I490
I11
I169768
I169878
tp486
a(I491
I7
I169878
I169920
tp487
a(I492
I11
I169920
I170030
tp488
a(I493
I24
I170030
I170582
tp489
a(I494
I11
I170582
I170692
tp490
a(I495
I5
I170692
I170712
tp491
a(I496
I22
I170712
I171174
tp492
a(I497
I34
I171174
I172296
tp493
a(I498
I10
I172296
I172386
tp494
a(I499
I18
I172386
I172692
tp495
a(I500
I17
I172692
I172964
tp496
a(I501
I4
I172964
I172976
tp497
a(I502
I18
I172976
I173282
tp498
a(I503
I8
I173282
I173338
tp499
a(I504
I36
I173338
I174598
tp500
a(I505
I18
I174598
I174904
tp501
a(I506
I19
I174904
I175246
tp502
a(I507
I14
I175246
I175428
tp503
a(I508
I39
I175428
I176910
tp504
a(I509
I10
I176910
I177000
tp505
a(I510
I11
I177000
I177110
tp506
a(I511
I12
I177110
I177242
tp507
a(I512
I28
I177242
I177998
tp508
a(I513
I21
I177998
I178418
tp509
a(I514
I10
I178418
I178508
tp510
a(I515
I9
I178508
I178580
tp511
a(I516
I12
I178580
I178712
tp512
a(I517
I26
I178712
I179362
tp513
a(I518
I4
I179362
I179374
tp514
a(I519
I21
I179374
I179794
tp515
a(I520
I13
I179794
I179950
tp516
a(I521
I33
I179950
I181006
tp517
a(I522
I14
I181006
I181188
tp518
a(I523
I11
I181188
I181298
tp519
a(I524
I24
I181298
I181850
tp520
a(I525
I19
I181850
I182192
tp521
a(I526
I25
I182192
I182792
tp522
a(I527
I6
I182792
I182822
tp523
a(I528
I14
I182822
I183004
tp524
a(I529
I7
I183004
I183046
tp525
a(I530
I3
I183046
I183052
tp526
a(I531
I4
I183052
I183064
tp527
a(I532
I3
I183064
I183070
tp528
a(I533
I24
I183070
I183622
tp529
a(I534
I11
I183622
I183732
tp530
a(I535
I16
I183732
I183972
tp531
a(I536
I9
I183972
I184044
tp532
a(I537
I24
I184044
I184596
tp533
a(I538
I13
I184596
I184752
tp534
a(I539
I9
I184752
I184824
tp535
a(I540
I19
I184824
I185166
tp536
a(I541
I8
I185166
I185222
tp537
a(I542
I47
I185222
I187384
tp538
a(I543
I11
I187384
I187494
tp539
a(I544
I31
I187494
I188424
tp540
a(I545
I8
I188424
I188480
tp541
a(I546
I12
I188480
I188612
tp542
a(I547
I26
I188612
I189262
tp543
a(I548
I17
I189262
I189534
tp544
a(I549
I12
I189534
I189666
tp545
a(I550
I3
I189666
I189672
tp546
a(I551
I11
I189672
I189782
tp547
a(I552
I15
I189782
I189992
tp548
a(I553
I16
I189992
I190232
tp549
a(I554
I13
I190232
I190388
tp550
a(I555
I18
I190388
I190694
tp551
a(I556
I20
I190694
I191074
tp552
a(I557
I34
I191074
I192196
tp553
a(I558
I11
I192196
I192306
tp554
a(I559
I28
I192306
I193062
tp555
a(I560
I25
I193062
I193662
tp556
a(I561
I5
I193662
I193682
tp557
a(I562
I9
I193682
I193754
tp558
a(I563
I10
I193754
I193844
tp559
a(I564
I13
I193844
I194000
tp560
a(I565
I8
I194000
I194056
tp561
a(I566
I9
I194056
I194128
tp562
a(I567
I2
I194128
I194130
tp563
a(I568
I22
I194130
I194592
tp564
a(I569
I17
I194592
I194864
tp565
a(I570
I3
I194864
I194870
tp566
a(I571
I10
I194870
I194960
tp567
a(I572
I8
I194960
I195016
tp568
a(I573
I13
I195016
I195172
tp569
a(I574
I9
I195172
I195244
tp570
a(I575
I5
I195244
I195264
tp571
a(I576
I18
I195264
I195570
tp572
a(I577
I8
I195570
I195626
tp573
a(I578
I20
I195626
I196006
tp574
a(I579
I18
I196006
I196312
tp575
a(I580
I2
I196312
I196314
tp576
a(I581
I6
I196314
I196344
tp577
a(I582
I12
I196344
I196476
tp578
a(I583
I5
I196476
I196496
tp579
a(I584
I17
I196496
I196768
tp580
a(I585
I37
I196768
I198100
tp581
a(I586
I23
I198100
I198606
tp582
a(I587
I21
I198606
I199026
tp583
a(I588
I35
I199026
I200216
tp584
a(I589
I21
I200216
I200636
tp585
a(I590
I9
I200636
I200708
tp586
a(I591
I4
I200708
I200720
tp587
a(I592
I3
I200720
I200726
tp588
a(I593
I19
I200726
I201068
tp589
a(I594
I6
I201068
I201098
tp590
a(I595
I7
I201098
I201140
tp591
a(I596
I2
I201140
I201142
tp592
a(I597
I11
I201142
I201252
tp593
a(I598
I29
I201252
I202064
tp594
a(I599
I14
I202064
I202246
tp595
a(I600
I17
I202246
I202518
tp596
a(I601
I3
I202518
I202524
tp597
a(I602
I15
I202524
I202734
tp598
a(I603
I9
I202734
I202806
tp599
a(I604
I11
I202806
I202916
tp600
a(I605
I18
I202916
I203222
tp601
a(I606
I14
I203222
I203404
tp602
a(I607
I1
I203404
I203404
tp603
a(I608
I18
I203404
I203710
tp604
a(I609
I3
I203710
I203716
tp605
a(I610
I8
I203716
I203772
tp606
a(I611
I6
I203772
I203802
tp607
a(I612
I6
I203802
I203832
tp608
a(I613
I7
I203832
I203874
tp609
a(I614
I7
I203874
I203916
tp610
a(I615
I14
I203916
I204098
tp611
a(I616
I19
I204098
I204440
tp612
a(I617
I8
I204440
I204496
tp613
a(I618
I2
I204496
I204498
tp614
a(I619
I7
I204498
I204540
tp615
a(I620
I38
I204540
I205946
tp616
a(I621
I8
I205946
I206002
tp617
a(I622
I19
I206002
I206344
tp618
a(I623
I47
I206344
I208506
tp619
a(I624
I6
I208506
I208536
tp620
a(I625
I11
I208536
I208646
tp621
a(I626
I31
I208646
I209576
tp622
a(I627
I12
I209576
I209708
tp623
a(I628
I6
I209708
I209738
tp624
a(I629
I2
I209738
I209740
tp625
a(I630
I15
I209740
I209950
tp626
a(I631
I10
I209950
I210040
tp627
a(I632
I10
I210040
I210130
tp628
a(I633
I43
I210130
I211936
tp629
a(I634
I12
I211936
I212068
tp630
a(I635
I5
I212068
I212088
tp631
a(I636
I11
I212088
I212198
tp632
a(I637
I4
I212198
I212210
tp633
a(I638
I28
I212210
I212966
tp634
a(I639
I32
I212966
I213958
tp635
a(I640
I24
I213958
I214510
tp636
a(I641
I15
I214510
I214720
tp637
a(I642
I22
I214720
I215182
tp638
a(I643
I5
I215182
I215202
tp639
a(I644
I23
I215202
I215708
tp640
a(I645
I11
I215708
I215818
tp641
a(I646
I1
I215818
I215818
tp642
a(I647
I33
I215818
I216874
tp643
a(I648
I22
I216874
I217336
tp644
a(I649
I12
I217336
I217468
tp645
a(I650
I4
I217468
I217480
tp646
a(I651
I14
I217480
I217662
tp647
a(I652
I49
I217662
I220014
tp648
a(I653
I20
I220014
I220394
tp649
a(I654
I4
I220394
I220406
tp650
a(I655
I6
I220406
I220436
tp651
a(I656
I14
I220436
I220618
tp652
a(I657
I13
I220618
I220774
tp653
a(I658
I6
I220774
I220804
tp654
a(I659
I17
I220804
I221076
tp655
a(I660
I27
I221076
I221778
tp656
a(I661
I24
I221778
I222330
tp657
a(I662
I17
I222330
I222602
tp658
a(I663
I10
I222602
I222692
tp659
a(I664
I10
I222692
I222782
tp660
a(I665
I21
I222782
I223202
tp661
a(I666
I6
I223202
I223232
tp662
a(I667
I8
I223232
I223288
tp663
a(I668
I7
I223288
I223330
tp664
a(I669
I8
I223330
I223386
tp665
a(I670
I5
I223386
I223406
tp666
a(I671
I1
I223406
I223406
tp667
a(I672
I4
I223406
I223418
tp668
a(I673
I15
I223418
I223628
tp669
a(I674
I8
I223628
I223684
tp670
a(I675
I10
I223684
I223774
tp671
a(I676
I30
I223774
I224644
tp672
a(I677
I34
I224644
I225766
tp673
a(I678
I15
I225766
I225976
tp674
a(I679
I8
I225976
I226032
tp675
a(I680
I2
I226032
I226034
tp676
a(I681
I4
I226034
I226046
tp677
a(I682
I11
I226046
I226156
tp678
a(I683
I7
I226156
I226198
tp679
a(I684
I17
I226198
I226470
tp680
a(I685
I11
I226470
I226580
tp681
a(I686
I3
I226580
I226586
tp682
a(I687
I18
I226586
I226892
tp683
a(I688
I4
I226892
I226904
tp684
a(I689
I7
I226904
I226946
tp685
a(I690
I4
I226946
I226958
tp686
a(I691
I42
I226958
I228680
tp687
a(I692
I37
I228680
I230012
tp688
a(I693
I27
I230012
I230714
tp689
a(I694
I17
I230714
I230986
tp690
a(I695
I6
I230986
I231016
tp691
a(I696
I17
I231016
I231288
tp692
a(I697
I13
I231288
I231444
tp693
a(I698
I29
I231444
I232256
tp694
a(I699
I14
I232256
I232438
tp695
a(I700
I10
I232438
I232528
tp696
a(I701
I20
I232528
I232908
tp697
a(I702
I19
I232908
I233250
tp698
a(I703
I4
I233250
I233262
tp699
a(I704
I13
I233262
I233418
tp700
a(I705
I18
I233418
I233724
tp701
a(I706
I28
I233724
I234480
tp702
a(I707
I67
I234480
I238902
tp703
a(I708
I28
I238902
I239658
tp704
a(I709
I22
I239658
I240120
tp705
a(I710
I30
I240120
I240990
tp706
a(I711
I7
I240990
I241032
tp707
a(I712
I9
I241032
I241104
tp708
a(I713
I9
I241104
I241176
tp709
a(I714
I6
I241176
I241206
tp710
a(I715
I6
I241206
I241236
tp711
a(I716
I4
I241236
I241248
tp712
a(I717
I8
I241248
I241304
tp713
a(I718
I5
I241304
I241324
tp714
a(I719
I37
I241324
I242656
tp715
a(I720
I5
I242656
I242676
tp716
a(I721
I4
I242676
I242688
tp717
a(I722
I2
I242688
I242690
tp718
a(I723
I5
I242690
I242710
tp719
a(I724
I16
I242710
I242950
tp720
a(I725
I27
I242950
I243652
tp721
a(I726
I6
I243652
I243682
tp722
a(I727
I3
I243682
I243688
tp723
a(I728
I9
I243688
I243760
tp724
a(I729
I11
I243760
I243870
tp725
a(I730
I50
I243870
I246320
tp726
a(I731
I5
I246320
I246340
tp727
a(I732
I17
I246340
I246612
tp728
a(I733
I12
I246612
I246744
tp729
a(I734
I9
I246744
I246816
tp730
a(I735
I3
I246816
I246822
tp731
a(I736
I9
I246822
I246894
tp732
a(I737
I13
I246894
I247050
tp733
a(I738
I31
I247050
I247980
tp734
a(I739
I4
I247980
I247992
tp735
a(I740
I6
I247992
I248022
tp736
a(I741
I16
I248022
I248262
tp737
a(I742
I14
I248262
I248444
tp738
a(I743
I9
I248444
I248516
tp739
a(I744
I16
I248516
I248756
tp740
a(I745
I11
I248756
I248866
tp741
a(I746
I6
I248866
I248896
tp742
a(I747
I2
I248896
I248898
tp743
a(I748
I10
I248898
I248988
tp744
a(I749
I13
I248988
I249144
tp745
a(I750
I8
I249144
I249200
tp746
a(I751
I8
I249200
I249256
tp747
a(I752
I30
I249256
I250126
tp748
a(I753
I48
I250126
I252382
tp749
a(I754
I18
I252382
I252688
tp750
a(I755
I21
I252688
I253108
tp751
a(I756
I17
I253108
I253380
tp752
a(I757
I16
I253380
I253620
tp753
a(I758
I31
I253620
I254550
tp754
a(I759
I17
I254550
I254822
tp755
a(I760
I8
I254822
I254878
tp756
a(I761
I7
I254878
I254920
tp757
a(I762
I30
I254920
I255790
tp758
a(I763
I25
I255790
I256390
tp759
a(I764
I15
I256390
I256600
tp760
a(I765
I25
I256600
I257200
tp761
a(I766
I11
I257200
I257310
tp762
a(I767
I8
I257310
I257366
tp763
a(I768
I5
I257366
I257386
tp764
a(I769
I5
I257386
I257406
tp765
a(I770
I15
I257406
I257616
tp766
a(I771
I14
I257616
I257798
tp767
a(I772
I13
I257798
I257954
tp768
a(I773
I5
I257954
I257974
tp769
a(I774
I40
I257974
I259534
tp770
a(I775
I32
I259534
I260526
tp771
a(I776
I22
I260526
I260988
tp772
a(I777
I1
I260988
I260988
tp773
a(I778
I26
I260988
I261638
tp774
a(I779
I12
I261638
I261770
tp775
a(I780
I25
I261770
I262370
tp776
a(I781
I7
I262370
I262412
tp777
a(I782
I12
I262412
I262544
tp778
a(I783
I25
I262544
I263144
tp779
a(I784
I6
I263144
I263174
tp780
a(I785
I33
I263174
I264230
tp781
a(I786
I2
I264230
I264232
tp782
a(I787
I6
I264232
I264262
tp783
a(I788
I15
I264262
I264472
tp784
a(I789
I25
I264472
I265072
tp785
a(I790
I8
I265072
I265128
tp786
a(I791
I11
I265128
I265238
tp787
a(I792
I4
I265238
I265250
tp788
a(I793
I13
I265250
I265406
tp789
a(I794
I12
I265406
I265538
tp790
a(I795
I7
I265538
I265580
tp791
a(I796
I27
I265580
I266282
tp792
a(I797
I14
I266282
I266464
tp793
a(I798
I25
I266464
I267064
tp794
a(I799
I2
I267064
I267066
tp795
a(I800
I2
I267066
I267068
tp796
a(I801
I17
I267068
I267340
tp797
a(I802
I8
I267340
I267396
tp798
a(I803
I12
I267396
I267528
tp799
a(I804
I9
I267528
I267600
tp800
a(I805
I10
I267600
I267690
tp801
a(I806
I3
I267690
I267696
tp802
a(I807
I5
I267696
I267716
tp803
a(I808
I22
I267716
I268178
tp804
a(I809
I13
I268178
I268334
tp805
a(I810
I12
I268334
I268466
tp806
a(I811
I55
I268466
I271436
tp807
a(I812
I3
I271436
I271442
tp808
a(I813
I6
I271442
I271472
tp809
a(I814
I25
I271472
I272072
tp810
a(I815
I18
I272072
I272378
tp811
a(I816
I12
I272378
I272510
tp812
a(I817
I10
I272510
I272600
tp813
a(I818
I16
I272600
I272840
tp814
a(I819
I13
I272840
I272996
tp815
a(I820
I15
I272996
I273206
tp816
a(I821
I71
I273206
I278176
tp817
a(I822
I6
I278176
I278206
tp818
a(I823
I12
I278206
I278338
tp819
a(I824
I3
I278338
I278344
tp820
a(I825
I25
I278344
I278944
tp821
a(I826
I8
I278944
I279000
tp822
a(I827
I2
I279000
I279002
tp823
a(I828
I26
I279002
I279652
tp824
a(I829
I10
I279652
I279742
tp825
a(I830
I38
I279742
I281148
tp826
a(I831
I6
I281148
I281178
tp827
a(I832
I15
I281178
I281388
tp828
a(I833
I31
I281388
I282318
tp829
a(I834
I12
I282318
I282450
tp830
a(I835
I6
I282450
I282480
tp831
a(I836
I23
I282480
I282986
tp832
a(I837
I37
I282986
I284318
tp833
a(I838
I13
I284318
I284474
tp834
a(I839
I12
I284474
I284606
tp835
a(I840
I4
I284606
I284618
tp836
a(I841
I5
I284618
I284638
tp837
a(I842
I6
I284638
I284668
tp838
a(I843
I6
I284668
I284698
tp839
a(I844
I14
I284698
I284880
tp840
a(I845
I13
I284880
I285036
tp841
a(I846
I11
I285036
I285146
tp842
a(I847
I7
I285146
I285188
tp843
a(I848
I5
I285188
I285208
tp844
a(I849
I4
I285208
I285220
tp845
a(I850
I13
I285220
I285376
tp846
a(I851
I27
I285376
I286078
tp847
a(I852
I18
I286078
I286384
tp848
a(I853
I21
I286384
I286804
tp849
a(I854
I14
I286804
I286986
tp850
a(I855
I7
I286986
I287028
tp851
a(I856
I18
I287028
I287334
tp852
a(I857
I33
I287334
I288390
tp853
a(I858
I39
I288390
I289872
tp854
a(I859
I13
I289872
I290028
tp855
a(I860
I47
I290028
I292190
tp856
a(I861
I7
I292190
I292232
tp857
a(I862
I4
I292232
I292244
tp858
a(I863
I12
I292244
I292376
tp859
a(I864
I3
I292376
I292382
tp860
a(I865
I35
I292382
I293572
tp861
a(I866
I2
I293572
I293574
tp862
a(I867
I14
I293574
I293756
tp863
a(I868
I13
I293756
I293912
tp864
a(I869
I12
I293912
I294044
tp865
a(I870
I22
I294044
I294506
tp866
a(I871
I13
I294506
I294662
tp867
a(I872
I27
I294662
I295364
tp868
a(I873
I10
I295364
I295454
tp869
a(I874
I11
I295454
I295564
tp870
a(I875
I4
I295564
I295576
tp871
a(I876
I14
I295576
I295758
tp872
a(I877
I11
I295758
I295868
tp873
a(I878
I37
I295868
I297200
tp874
a(I879
I18
I297200
I297506
tp875
a(I880
I1
I297506
I297506
tp876
a(I881
I47
I297506
I299668
tp877
a(I882
I1
I299668
I299668
tp878
a(I883
I15
I299668
I299878
tp879
a(I884
I34
I299878
I301000
tp880
a(I885
I25
I301000
I301600
tp881
a(I886
I16
I301600
I301840
tp882
a(I887
I14
I301840
I302022
tp883
a(I888
I8
I302022
I302078
tp884
a(I889
I12
I302078
I302210
tp885
a(I890
I3
I302210
I302216
tp886
a(I891
I4
I302216
I302228
tp887
a(I892
I15
I302228
I302438
tp888
a(I893
I23
I302438
I302944
tp889
a(I895
I1
I302944
I302944
tp890
a(I896
I59
I302944
I306366
tp891
a(I897
I23
I306366
I306872
tp892
a(I898
I8
I306872
I306928
tp893
a(I899
I21
I306928
I307348
tp894
a(I900
I30
I307348
I308218
tp895
a(I901
I8
I308218
I308274
tp896
a(I902
I40
I308274
I309834
tp897
a(I903
I16
I309834
I310074
tp898
a(I904
I14
I310074
I310256
tp899
a(I905
I4
I310256
I310268
tp900
a(I906
I32
I310268
I311260
tp901
a(I907
I5
I311260
I311280
tp902
a(I908
I6
I311280
I311310
tp903
a(I909
I11
I311310
I311420
tp904
a(I910
I4
I311420
I311432
tp905
a(I911
I8
I311432
I311488
tp906
a(I912
I20
I311488
I311868
tp907
a(I913
I3
I311868
I311874
tp908
a(I914
I3
I311874
I311880
tp909
a(I915
I22
I311880
I312342
tp910
a(I916
I15
I312342
I312552
tp911
a(I917
I2
I312552
I312554
tp912
a(I918
I6
I312554
I312584
tp913
a(I919
I8
I312584
I312640
tp914
a(I920
I10
I312640
I312730
tp915
a(I921
I10
I312730
I312820
tp916
a(I922
I11
I312820
I312930
tp917
a(I923
I5
I312930
I312950
tp918
a(I924
I10
I312950
I313040
tp919
a(I925
I19
I313040
I313382
tp920
a(I926
I23
I313382
I313888
tp921
a(I927
I4
I313888
I313900
tp922
a(I928
I36
I313900
I315160
tp923
a(I929
I16
I315160
I315400
tp924
a(I930
I18
I315400
I315706
tp925
a(I931
I8
I315706
I315762
tp926
a(I932
I2
I315762
I315764
tp927
a(I933
I14
I315764
I315946
tp928
a(I934
I16
I315946
I316186
tp929
a(I935
I1
I316186
I316186
tp930
a(I936
I12
I316186
I316318
tp931
a(I937
I4
I316318
I316330
tp932
a(I938
I4
I316330
I316342
tp933
a(I939
I11
I316342
I316452
tp934
a(I940
I21
I316452
I316872
tp935
a(I941
I33
I316872
I317928
tp936
a(I942
I6
I317928
I317958
tp937
a(I943
I13
I317958
I318114
tp938
a(I944
I24
I318114
I318666
tp939
a(I945
I4
I318666
I318678
tp940
a(I946
I9
I318678
I318750
tp941
a(I947
I6
I318750
I318780
tp942
a(I948
I1
I318780
I318780
tp943
a(I949
I15
I318780
I318990
tp944
a(I950
I5
I318990
I319010
tp945
a(I951
I4
I319010
I319022
tp946
a(I952
I8
I319022
I319078
tp947
a(I953
I3
I319078
I319084
tp948
a(I954
I36
I319084
I320344
tp949
a(I955
I17
I320344
I320616
tp950
a(I956
I14
I320616
I320798
tp951
a(I957
I5
I320798
I320818
tp952
a(I958
I15
I320818
I321028
tp953
a(I959
I12
I321028
I321160
tp954
a(I960
I7
I321160
I321202
tp955
a(I961
I20
I321202
I321582
tp956
a(I962
I28
I321582
I322338
tp957
a(I963
I6
I322338
I322368
tp958
a(I964
I8
I322368
I322424
tp959
a(I965
I21
I322424
I322844
tp960
a(I966
I10
I322844
I322934
tp961
a(I967
I10
I322934
I323024
tp962
a(I968
I22
I323024
I323486
tp963
a(I969
I25
I323486
I324086
tp964
a(I970
I3
I324086
I324092
tp965
a(I971
I6
I324092
I324122
tp966
a(I972
I10
I324122
I324212
tp967
a(I973
I5
I324212
I324232
tp968
a(I974
I2
I324232
I324234
tp969
a(I975
I9
I324234
I324306
tp970
a(I976
I3
I324306
I324312
tp971
a(I977
I69
I324312
I329004
tp972
a(I978
I3
I329004
I329010
tp973
a(I979
I12
I329010
I329142
tp974
a(I980
I12
I329142
I329274
tp975
a(I981
I36
I329274
I330534
tp976
a(I982
I14
I330534
I330716
tp977
a(I983
I3
I330716
I330722
tp978
a(I984
I35
I330722
I331912
tp979
a(I985
I9
I331912
I331984
tp980
a(I986
I14
I331984
I332166
tp981
a(I987
I7
I332166
I332208
tp982
a(I988
I44
I332208
I334100
tp983
a(I989
I10
I334100
I334190
tp984
a(I990
I21
I334190
I334610
tp985
a(I991
I24
I334610
I335162
tp986
a(I992
I16
I335162
I335402
tp987
a(I993
I8
I335402
I335458
tp988
a(I994
I34
I335458
I336580
tp989
a(I995
I16
I336580
I336820
tp990
a(I996
I63
I336820
I340726
tp991
a(I997
I10
I340726
I340816
tp992
a(I998
I29
I340816
I341628
tp993
a(I999
I11
I341628
I341738
tp994
a(I1000
I56
I341738
I344818
tp995
a(I1001
I10
I344818
I344908
tp996
a(I1002
I4
I344908
I344920
tp997
a(I1003
I18
I344920
I345226
tp998
a(I1004
I6
I345226
I345256
tp999
a(I1005
I9
I345256
I345328
tp1000
a(I1006
I26
I345328
I345978
tp1001
a(I1007
I28
I345978
I346734
tp1002
a(I1008
I10
I346734
I346824
tp1003
a(I1009
I5
I346824
I346844
tp1004
a(I1010
I18
I346844
I347150
tp1005
a(I1011
I12
I347150
I347282
tp1006
a(I1012
I11
I347282
I347392
tp1007
a(I1013
I22
I347392
I347854
tp1008
a(I1014
I9
I347854
I347926
tp1009
a(I1015
I5
I347926
I347946
tp1010
a(I1016
I3
I347946
I347952
tp1011
a(I1017
I10
I347952
I348042
tp1012
a(I1018
I23
I348042
I348548
tp1013
a(I1019
I28
I348548
I349304
tp1014
a(I1020
I15
I349304
I349514
tp1015
a(I1021
I7
I349514
I349556
tp1016
a(I1022
I17
I349556
I349828
tp1017
a(I1023
I24
I349828
I350380
tp1018
a(I1024
I11
I350380
I350490
tp1019
a(I1025
I1
I350490
I350490
tp1020
a(I1026
I16
I350490
I350730
tp1021
a(I1027
I20
I350730
I351110
tp1022
a(I1028
I7
I351110
I351152
tp1023
a(I1029
I12
I351152
I351284
tp1024
a(I1030
I17
I351284
I351556
tp1025
a(I1031
I19
I351556
I351898
tp1026
a(I1032
I4
I351898
I351910
tp1027
a(I1033
I12
I351910
I352042
tp1028
a(I1034
I5
I352042
I352062
tp1029
a(I1035
I7
I352062
I352104
tp1030
a(I1036
I44
I352104
I353996
tp1031
a(I1037
I24
I353996
I354548
tp1032
a(I1038
I18
I354548
I354854
tp1033
a(I1039
I3
I354854
I354860
tp1034
a(I1040
I23
I354860
I355366
tp1035
a(I1041
I2
I355366
I355368
tp1036
a(I1042
I32
I355368
I356360
tp1037
a(I1043
I41
I356360
I358000
tp1038
a(I1044
I40
I358000
I359560
tp1039
a(I1045
I26
I359560
I360210
tp1040
a(I1046
I4
I360210
I360222
tp1041
a(I1047
I5
I360222
I360242
tp1042
a(I1048
I24
I360242
I360794
tp1043
a(I1049
I15
I360794
I361004
tp1044
a(I1050
I9
I361004
I361076
tp1045
a(I1051
I3
I361076
I361082
tp1046
a(I1052
I9
I361082
I361154
tp1047
a(I1053
I12
I361154
I361286
tp1048
a(I1054
I3
I361286
I361292
tp1049
a(I1055
I9
I361292
I361364
tp1050
a(I1056
I25
I361364
I361964
tp1051
a(I1057
I28
I361964
I362720
tp1052
a(I1058
I4
I362720
I362732
tp1053
a(I1059
I11
I362732
I362842
tp1054
a(I1060
I19
I362842
I363184
tp1055
a(I1061
I5
I363184
I363204
tp1056
a(I1062
I10
I363204
I363294
tp1057
a(I1063
I9
I363294
I363366
tp1058
a(I1064
I45
I363366
I365346
tp1059
a(I1065
I9
I365346
I365418
tp1060
a(I1066
I29
I365418
I366230
tp1061
a(I1067
I2
I366230
I366232
tp1062
a(I1068
I18
I366232
I366538
tp1063
a(I1069
I15
I366538
I366748
tp1064
a(I1070
I1
I366748
I366748
tp1065
a(I1071
I5
I366748
I366768
tp1066
a(I1072
I22
I366768
I367230
tp1067
a(I1073
I39
I367230
I368712
tp1068
a(I1074
I4
I368712
I368724
tp1069
a(I1075
I20
I368724
I369104
tp1070
a(I1076
I16
I369104
I369344
tp1071
a(I1077
I3
I369344
I369350
tp1072
a(I1078
I1
I369350
I369350
tp1073
a(I1079
I8
I369350
I369406
tp1074
a(I1080
I6
I369406
I369436
tp1075
a(I1081
I6
I369436
I369466
tp1076
a(I1082
I13
I369466
I369622
tp1077
a(I1083
I8
I369622
I369678
tp1078
a(I1084
I18
I369678
I369984
tp1079
a(I1085
I30
I369984
I370854
tp1080
a(I1086
I11
I370854
I370964
tp1081
a(I1087
I11
I370964
I371074
tp1082
a(I1088
I33
I371074
I372130
tp1083
a(I1089
I17
I372130
I372402
tp1084
a(I1090
I3
I372402
I372408
tp1085
a(I1091
I16
I372408
I372648
tp1086
a(I1092
I32
I372648
I373640
tp1087
a(I1093
I11
I373640
I373750
tp1088
a(I1094
I5
I373750
I373770
tp1089
a(I1095
I16
I373770
I374010
tp1090
a(I1096
I19
I374010
I374352
tp1091
a(I1097
I7
I374352
I374394
tp1092
a(I1098
I5
I374394
I374414
tp1093
a(I1099
I18
I374414
I374720
tp1094
a(I1100
I2
I374720
I374722
tp1095
a(I1101
I7
I374722
I374764
tp1096
a(I1102
I18
I374764
I375070
tp1097
a(I1103
I17
I375070
I375342
tp1098
a(I1104
I14
I375342
I375524
tp1099
a(I1105
I8
I375524
I375580
tp1100
a(I1106
I6
I375580
I375610
tp1101
a(I1107
I30
I375610
I376480
tp1102
a(I1108
I92
I376480
I384852
tp1103
a(I1109
I12
I384852
I384984
tp1104
a(I1110
I2
I384984
I384986
tp1105
a(I1111
I13
I384986
I385142
tp1106
a(I1112
I17
I385142
I385414
tp1107
a(I1113
I10
I385414
I385504
tp1108
a(I1114
I9
I385504
I385576
tp1109
a(I1115
I24
I385576
I386128
tp1110
a(I1116
I8
I386128
I386184
tp1111
a(I1117
I26
I386184
I386834
tp1112
a(I1118
I32
I386834
I387826
tp1113
a(I1119
I16
I387826
I388066
tp1114
a(I1120
I17
I388066
I388338
tp1115
a(I1121
I27
I388338
I389040
tp1116
a(I1122
I18
I389040
I389346
tp1117
a(I1123
I17
I389346
I389618
tp1118
a(I1124
I12
I389618
I389750
tp1119
a(I1125
I5
I389750
I389770
tp1120
a(I1126
I4
I389770
I389782
tp1121
a(I1127
I4
I389782
I389794
tp1122
a(I1128
I5
I389794
I389814
tp1123
a(I1129
I4
I389814
I389826
tp1124
a(I1130
I10
I389826
I389916
tp1125
a(I1131
I16
I389916
I390156
tp1126
a(I1132
I7
I390156
I390198
tp1127
a(I1133
I7
I390198
I390240
tp1128
a(I1134
I3
I390240
I390246
tp1129
a(I1135
I21
I390246
I390666
tp1130
a(I1136
I4
I390666
I390678
tp1131
a(I1137
I1
I390678
I390678
tp1132
a(I1138
I5
I390678
I390698
tp1133
a(I1139
I3
I390698
I390704
tp1134
a(I1140
I3
I390704
I390710
tp1135
a(I1141
I3
I390710
I390716
tp1136
a(I1142
I11
I390716
I390826
tp1137
a(I1143
I26
I390826
I391476
tp1138
a(I1144
I28
I391476
I392232
tp1139
a(I1145
I17
I392232
I392504
tp1140
a(I1146
I2
I392504
I392506
tp1141
a(I1147
I12
I392506
I392638
tp1142
a(I1148
I13
I392638
I392794
tp1143
a(I1149
I9
I392794
I392866
tp1144
a(I1150
I32
I392866
I393858
tp1145
a(I1151
I30
I393858
I394728
tp1146
a(I1152
I23
I394728
I395234
tp1147
a(I1153
I70
I395234
I400064
tp1148
a(I1154
I13
I400064
I400220
tp1149
a(I1155
I7
I400220
I400262
tp1150
a(I1156
I21
I400262
I400682
tp1151
a(I1157
I3
I400682
I400688
tp1152
a(I1158
I8
I400688
I400744
tp1153
a(I1159
I12
I400744
I400876
tp1154
a(I1160
I15
I400876
I401086
tp1155
a(I1161
I16
I401086
I401326
tp1156
a(I1162
I5
I401326
I401346
tp1157
a(I1163
I11
I401346
I401456
tp1158
a(I1164
I26
I401456
I402106
tp1159
a(I1165
I17
I402106
I402378
tp1160
a(I1166
I2
I402378
I402380
tp1161
a(I1167
I28
I402380
I403136
tp1162
a(I1168
I6
I403136
I403166
tp1163
a(I1169
I28
I403166
I403922
tp1164
a(I1170
I4
I403922
I403934
tp1165
a(I1171
I11
I403934
I404044
tp1166
a(I1172
I4
I404044
I404056
tp1167
a(I1173
I27
I404056
I404758
tp1168
a(I1174
I17
I404758
I405030
tp1169
a(I1175
I14
I405030
I405212
tp1170
a(I1176
I15
I405212
I405422
tp1171
a(I1177
I2
I405422
I405424
tp1172
a(I1178
I23
I405424
I405930
tp1173
a(I1179
I20
I405930
I406310
tp1174
a(I1180
I26
I406310
I406960
tp1175
a(I1181
I8
I406960
I407016
tp1176
a(I1182
I6
I407016
I407046
tp1177
a(I1183
I12
I407046
I407178
tp1178
a(I1184
I15
I407178
I407388
tp1179
a(I1185
I2
I407388
I407390
tp1180
a(I1186
I1
I407390
I407390
tp1181
a(I1187
I59
I407390
I410812
tp1182
a(I1188
I22
I410812
I411274
tp1183
a(I1189
I18
I411274
I411580
tp1184
a(I1190
I4
I411580
I411592
tp1185
a(I1191
I5
I411592
I411612
tp1186
a(I1192
I1
I411612
I411612
tp1187
a(I1193
I9
I411612
I411684
tp1188
a(I1194
I46
I411684
I413754
tp1189
a(I1195
I1
I413754
I413754
tp1190
a(I1196
I3
I413754
I413760
tp1191
a(I1197
I26
I413760
I414410
tp1192
a(I1198
I12
I414410
I414542
tp1193
a(I1199
I14
I414542
I414724
tp1194
a(I1200
I39
I414724
I416206
tp1195
a(I1201
I11
I416206
I416316
tp1196
a(I1202
I18
I416316
I416622
tp1197
a(I1203
I40
I416622
I418182
tp1198
a(I1204
I20
I418182
I418562
tp1199
a(I1205
I8
I418562
I418618
tp1200
a(I1206
I7
I418618
I418660
tp1201
a(I1207
I18
I418660
I418966
tp1202
a(I1208
I8
I418966
I419022
tp1203
a(I1209
I9
I419022
I419094
tp1204
a(I1210
I35
I419094
I420284
tp1205
a(I1211
I13
I420284
I420440
tp1206
a(I1212
I2
I420440
I420442
tp1207
a(I1213
I25
I420442
I421042
tp1208
a(I1214
I16
I421042
I421282
tp1209
a(I1215
I18
I421282
I421588
tp1210
a(I1216
I9
I421588
I421660
tp1211
a(I1217
I12
I421660
I421792
tp1212
a(I1218
I13
I421792
I421948
tp1213
a(I1219
I27
I421948
I422650
tp1214
a(I1220
I9
I422650
I422722
tp1215
a(I1221
I18
I422722
I423028
tp1216
a(I1222
I19
I423028
I423370
tp1217
a(I1223
I9
I423370
I423442
tp1218
a(I1224
I33
I423442
I424498
tp1219
a(I1225
I33
I424498
I425554
tp1220
a(I1226
I27
I425554
I426256
tp1221
a(I1227
I11
I426256
I426366
tp1222
a(I1228
I10
I426366
I426456
tp1223
a(I1229
I12
I426456
I426588
tp1224
a(I1230
I10
I426588
I426678
tp1225
a(I1231
I2
I426678
I426680
tp1226
a(I1232
I5
I426680
I426700
tp1227
a(I1233
I7
I426700
I426742
tp1228
a(I1234
I10
I426742
I426832
tp1229
a(I1235
I3
I426832
I426838
tp1230
a(I1236
I53
I426838
I429594
tp1231
a(I1237
I2
I429594
I429596
tp1232
a(I1238
I33
I429596
I430652
tp1233
a(I1239
I7
I430652
I430694
tp1234
a(I1240
I13
I430694
I430850
tp1235
a(I1241
I34
I430850
I431972
tp1236
a(I1242
I26
I431972
I432622
tp1237
a(I1243
I13
I432622
I432778
tp1238
a(I1244
I22
I432778
I433240
tp1239
a(I1245
I11
I433240
I433350
tp1240
a(I1246
I9
I433350
I433422
tp1241
a(I1247
I25
I433422
I434022
tp1242
a(I1248
I2
I434022
I434024
tp1243
a(I1249
I44
I434024
I435916
tp1244
a(I1250
I11
I435916
I436026
tp1245
a(I1251
I8
I436026
I436082
tp1246
a(I1252
I8
I436082
I436138
tp1247
a(I1253
I1
I436138
I436138
tp1248
a(I1254
I9
I436138
I436210
tp1249
a(I1255
I13
I436210
I436366
tp1250
a(I1256
I11
I436366
I436476
tp1251
a(I1257
I18
I436476
I436782
tp1252
a(I1258
I24
I436782
I437334
tp1253
a(I1259
I25
I437334
I437934
tp1254
a(I1260
I10
I437934
I438024
tp1255
a(I1261
I12
I438024
I438156
tp1256
a(I1262
I17
I438156
I438428
tp1257
a(I1263
I22
I438428
I438890
tp1258
a(I1264
I25
I438890
I439490
tp1259
a(I1265
I32
I439490
I440482
tp1260
a(I1266
I13
I440482
I440638
tp1261
a(I1267
I16
I440638
I440878
tp1262
a(I1268
I7
I440878
I440920
tp1263
a(I1269
I7
I440920
I440962
tp1264
a(I1270
I19
I440962
I441304
tp1265
a(I1271
I5
I441304
I441324
tp1266
a(I1272
I9
I441324
I441396
tp1267
a(I1273
I18
I441396
I441702
tp1268
a(I1274
I7
I441702
I441744
tp1269
a(I1275
I23
I441744
I442250
tp1270
a(I1276
I8
I442250
I442306
tp1271
a(I1277
I16
I442306
I442546
tp1272
a(I1278
I14
I442546
I442728
tp1273
a(I1279
I13
I442728
I442884
tp1274
a(I1280
I34
I442884
I444006
tp1275
a(I1282
I5
I444006
I444026
tp1276
a(I1283
I9
I444026
I444098
tp1277
a(I1284
I14
I444098
I444280
tp1278
a(I1285
I8
I444280
I444336
tp1279
a(I1286
I12
I444336
I444468
tp1280
a(I1287
I11
I444468
I444578
tp1281
a(I1288
I14
I444578
I444760
tp1282
a(I1289
I44
I444760
I446652
tp1283
a(I1290
I5
I446652
I446672
tp1284
a(I1291
I6
I446672
I446702
tp1285
a(I1292
I43
I446702
I448508
tp1286
a(I1293
I4
I448508
I448520
tp1287
a(I1294
I7
I448520
I448562
tp1288
a(I1295
I31
I448562
I449492
tp1289
a(I1296
I42
I449492
I451214
tp1290
a(I1297
I19
I451214
I451556
tp1291
a(I1298
I11
I451556
I451666
tp1292
a(I1299
I5
I451666
I451686
tp1293
a(I1300
I14
I451686
I451868
tp1294
a(I1301
I18
I451868
I452174
tp1295
a(I1302
I9
I452174
I452246
tp1296
a(I1303
I21
I452246
I452666
tp1297
a(I1304
I18
I452666
I452972
tp1298
a(I1305
I6
I452972
I453002
tp1299
a(I1306
I40
I453002
I454562
tp1300
a(I1307
I19
I454562
I454904
tp1301
a(I1308
I42
I454904
I456626
tp1302
a(I1309
I6
I456626
I456656
tp1303
a(I1310
I25
I456656
I457256
tp1304
a(I1311
I8
I457256
I457312
tp1305
a(I1312
I32
I457312
I458304
tp1306
a(I1313
I14
I458304
I458486
tp1307
a(I1314
I28
I458486
I459242
tp1308
a(I1315
I11
I459242
I459352
tp1309
a(I1316
I4
I459352
I459364
tp1310
a(I1317
I5
I459364
I459384
tp1311
a(I1318
I15
I459384
I459594
tp1312
a(I1319
I8
I459594
I459650
tp1313
a(I1320
I2
I459650
I459652
tp1314
a(I1321
I34
I459652
I460774
tp1315
a(I1322
I4
I460774
I460786
tp1316
a(I1323
I2
I460786
I460788
tp1317
a(I1324
I4
I460788
I460800
tp1318
a(I1325
I5
I460800
I460820
tp1319
a(I1326
I15
I460820
I461030
tp1320
a(I1327
I1
I461030
I461030
tp1321
a(I1328
I11
I461030
I461140
tp1322
a(I1329
I9
I461140
I461212
tp1323
a(I1330
I30
I461212
I462082
tp1324
a(I1331
I14
I462082
I462264
tp1325
a(I1332
I7
I462264
I462306
tp1326
a(I1333
I3
I462306
I462312
tp1327
a(I1334
I6
I462312
I462342
tp1328
a(I1335
I18
I462342
I462648
tp1329
a(I1336
I21
I462648
I463068
tp1330
a(I1337
I13
I463068
I463224
tp1331
a(I1338
I11
I463224
I463334
tp1332
a(I1339
I16
I463334
I463574
tp1333
a(I1340
I23
I463574
I464080
tp1334
a(I1341
I19
I464080
I464422
tp1335
a(I1342
I20
I464422
I464802
tp1336
a(I1343
I6
I464802
I464832
tp1337
a(I1344
I27
I464832
I465534
tp1338
a(I1345
I11
I465534
I465644
tp1339
a(I1346
I3
I465644
I465650
tp1340
a(I1347
I27
I465650
I466352
tp1341
a(I1348
I23
I466352
I466858
tp1342
a(I1349
I13
I466858
I467014
tp1343
a(I1350
I3
I467014
I467020
tp1344
a(I1351
I14
I467020
I467202
tp1345
a(I1352
I11
I467202
I467312
tp1346
a(I1353
I9
I467312
I467384
tp1347
a(I1354
I35
I467384
I468574
tp1348
a(I1355
I31
I468574
I469504
tp1349
a(I1356
I5
I469504
I469524
tp1350
a(I1357
I24
I469524
I470076
tp1351
a(I1358
I9
I470076
I470148
tp1352
a(I1359
I14
I470148
I470330
tp1353
a(I1360
I23
I470330
I470836
tp1354
a(I1361
I5
I470836
I470856
tp1355
a(I1362
I7
I470856
I470898
tp1356
a(I1363
I4
I470898
I470910
tp1357
a(I1364
I9
I470910
I470982
tp1358
a(I1365
I20
I470982
I471362
tp1359
a(I1366
I18
I471362
I471668
tp1360
a(I1367
I6
I471668
I471698
tp1361
a(I1368
I9
I471698
I471770
tp1362
a(I1369
I17
I471770
I472042
tp1363
a(I1370
I15
I472042
I472252
tp1364
a(I1371
I9
I472252
I472324
tp1365
a(I1372
I4
I472324
I472336
tp1366
a(I1373
I29
I472336
I473148
tp1367
a(I1374
I14
I473148
I473330
tp1368
a(I1375
I34
I473330
I474452
tp1369
a(I1376
I21
I474452
I474872
tp1370
a(I1377
I4
I474872
I474884
tp1371
a(I1378
I7
I474884
I474926
tp1372
a(I1379
I15
I474926
I475136
tp1373
a(I1380
I16
I475136
I475376
tp1374
a(I1381
I25
I475376
I475976
tp1375
a(I1382
I4
I475976
I475988
tp1376
a(I1383
I24
I475988
I476540
tp1377
a(I1384
I4
I476540
I476552
tp1378
a(I1385
I13
I476552
I476708
tp1379
a(I1386
I23
I476708
I477214
tp1380
a(I1387
I3
I477214
I477220
tp1381
a(I1388
I6
I477220
I477250
tp1382
a(I1389
I1
I477250
I477250
tp1383
a(I1390
I21
I477250
I477670
tp1384
a(I1391
I12
I477670
I477802
tp1385
a(I1392
I3
I477802
I477808
tp1386
a(I1393
I16
I477808
I478048
tp1387
a(I1394
I9
I478048
I478120
tp1388
a(I1395
I17
I478120
I478392
tp1389
a(I1396
I14
I478392
I478574
tp1390
a(I1397
I5
I478574
I478594
tp1391
a(I1398
I3
I478594
I478600
tp1392
a(I1399
I7
I478600
I478642
tp1393
a(I1400
I13
I478642
I478798
tp1394
a(I1401
I8
I478798
I478854
tp1395
a(I1402
I8
I478854
I478910
tp1396
a(I1403
I10
I478910
I479000
tp1397
a(I1404
I7
I479000
I479042
tp1398
a(I1405
I3
I479042
I479048
tp1399
a(I1406
I16
I479048
I479288
tp1400
a(I1407
I25
I479288
I479888
tp1401
a(I1408
I27
I479888
I480590
tp1402
a(I1409
I17
I480590
I480862
tp1403
a(I1410
I20
I480862
I481242
tp1404
a(I1411
I7
I481242
I481284
tp1405
a(I1412
I6
I481284
I481314
tp1406
a(I1413
I10
I481314
I481404
tp1407
a(I1414
I3
I481404
I481410
tp1408
a(I1415
I21
I481410
I481830
tp1409
a(I1416
I4
I481830
I481842
tp1410
a(I1417
I3
I481842
I481848
tp1411
a(I1418
I6
I481848
I481878
tp1412
a(I1419
I6
I481878
I481908
tp1413
a(I1420
I14
I481908
I482090
tp1414
a(I1421
I24
I482090
I482642
tp1415
a(I1422
I10
I482642
I482732
tp1416
a(I1423
I17
I482732
I483004
tp1417
a(I1424
I35
I483004
I484194
tp1418
a(I1425
I27
I484194
I484896
tp1419
a(I1426
I4
I484896
I484908
tp1420
a(I1427
I9
I484908
I484980
tp1421
a(I1428
I4
I484980
I484992
tp1422
a(I1429
I25
I484992
I485592
tp1423
a(I1430
I22
I485592
I486054
tp1424
a(I1431
I17
I486054
I486326
tp1425
a(I1432
I24
I486326
I486878
tp1426
a(I1433
I11
I486878
I486988
tp1427
a(I1434
I21
I486988
I487408
tp1428
a(I1435
I10
I487408
I487498
tp1429
a(I1436
I8
I487498
I487554
tp1430
a(I1437
I2
I487554
I487556
tp1431
a(I1438
I21
I487556
I487976
tp1432
a(I1439
I12
I487976
I488108
tp1433
a(I1440
I16
I488108
I488348
tp1434
a(I1441
I8
I488348
I488404
tp1435
a(I1442
I13
I488404
I488560
tp1436
a(I1443
I26
I488560
I489210
tp1437
a(I1444
I9
I489210
I489282
tp1438
a(I1445
I12
I489282
I489414
tp1439
a(I1446
I20
I489414
I489794
tp1440
a(I1447
I24
I489794
I490346
tp1441
a(I1448
I5
I490346
I490366
tp1442
a(I1449
I5
I490366
I490386
tp1443
a(I1450
I23
I490386
I490892
tp1444
a(I1451
I11
I490892
I491002
tp1445
a(I1452
I6
I491002
I491032
tp1446
a(I1453
I29
I491032
I491844
tp1447
a(I1454
I9
I491844
I491916
tp1448
a(I1455
I2
I491916
I491918
tp1449
a(I1456
I6
I491918
I491948
tp1450
a(I1457
I16
I491948
I492188
tp1451
a(I1458
I15
I492188
I492398
tp1452
a(I1459
I4
I492398
I492410
tp1453
a(I1460
I26
I492410
I493060
tp1454
a(I1461
I2
I493060
I493062
tp1455
a(I1462
I9
I493062
I493134
tp1456
a(I1463
I43
I493134
I494940
tp1457
a(I1464
I1
I494940
I494940
tp1458
a(I1465
I3
I494940
I494946
tp1459
a(I1466
I6
I494946
I494976
tp1460
a(I1467
I13
I494976
I495132
tp1461
a(I1468
I17
I495132
I495404
tp1462
a(I1469
I17
I495404
I495676
tp1463
a(I1470
I12
I495676
I495808
tp1464
a(I1471
I13
I495808
I495964
tp1465
a(I1472
I5
I495964
I495984
tp1466
a(I1473
I10
I495984
I496074
tp1467
a(I1474
I44
I496074
I497966
tp1468
a(I1475
I19
I497966
I498308
tp1469
a(I1476
I9
I498308
I498380
tp1470
a(I1477
I6
I498380
I498410
tp1471
a(I1478
I14
I498410
I498592
tp1472
a(I1479
I4
I498592
I498604
tp1473
a(I1480
I28
I498604
I499360
tp1474
a(I1481
I18
I499360
I499666
tp1475
a(I1482
I8
I499666
I499722
tp1476
a(I1483
I9
I499722
I499794
tp1477
a(I1484
I27
I499794
I500496
tp1478
a(I1485
I17
I500496
I500768
tp1479
a(I1486
I16
I500768
I501008
tp1480
a(I1487
I7
I501008
I501050
tp1481
a(I1488
I5
I501050
I501070
tp1482
a(I1489
I25
I501070
I501670
tp1483
a(I1490
I34
I501670
I502792
tp1484
a(I1491
I27
I502792
I503494
tp1485
a(I1492
I3
I503494
I503500
tp1486
a(I1493
I7
I503500
I503542
tp1487
a(I1494
I15
I503542
I503752
tp1488
a(I1495
I5
I503752
I503772
tp1489
a(I1496
I3
I503772
I503778
tp1490
a(I1497
I10
I503778
I503868
tp1491
a(I1498
I5
I503868
I503888
tp1492
a(I1499
I17
I503888
I504160
tp1493
a(I1500
I53
I504160
I506916
tp1494
a(I1501
I29
I506916
I507728
tp1495
a(I1502
I12
I507728
I507860
tp1496
a(I1503
I8
I507860
I507916
tp1497
a(I1504
I8
I507916
I507972
tp1498
a(I1505
I2
I507972
I507974
tp1499
a(I1506
I19
I507974
I508316
tp1500
a(I1507
I12
I508316
I508448
tp1501
a(I1508
I8
I508448
I508504
tp1502
a(I1509
I10
I508504
I508594
tp1503
a(I1510
I9
I508594
I508666
tp1504
a(I1511
I9
I508666
I508738
tp1505
a(I1512
I8
I508738
I508794
tp1506
a(I1513
I19
I508794
I509136
tp1507
a(I1514
I4
I509136
I509148
tp1508
a(I1515
I24
I509148
I509700
tp1509
a(I1516
I13
I509700
I509856
tp1510
a(I1517
I2
I509856
I509858
tp1511
a(I1518
I3
I509858
I509864
tp1512
a(I1519
I5
I509864
I509884
tp1513
a(I1520
I17
I509884
I510156
tp1514
a(I1521
I3
I510156
I510162
tp1515
a(I1522
I12
I510162
I510294
tp1516
a(I1523
I4
I510294
I510306
tp1517
a(I1524
I13
I510306
I510462
tp1518
a(I1525
I11
I510462
I510572
tp1519
a(I1526
I16
I510572
I510812
tp1520
a(I1527
I32
I510812
I511804
tp1521
a(I1528
I9
I511804
I511876
tp1522
a(I1529
I8
I511876
I511932
tp1523
a(I1530
I7
I511932
I511974
tp1524
a(I1531
I5
I511974
I511994
tp1525
a(I1532
I10
I511994
I512084
tp1526
a(I1533
I32
I512084
I513076
tp1527
a(I1534
I23
I513076
I513582
tp1528
a(I1535
I9
I513582
I513654
tp1529
a(I1536
I18
I513654
I513960
tp1530
a(I1537
I5
I513960
I513980
tp1531
a(I1538
I39
I513980
I515462
tp1532
a(I1539
I19
I515462
I515804
tp1533
a(I1540
I4
I515804
I515816
tp1534
a(I1541
I3
I515816
I515822
tp1535
a(I1542
I10
I515822
I515912
tp1536
a(I1543
I31
I515912
I516842
tp1537
a(I1544
I10
I516842
I516932
tp1538
a(I1545
I10
I516932
I517022
tp1539
a(I1546
I114
I517022
I529904
tp1540
a(I1547
I12
I529904
I530036
tp1541
a(I1548
I4
I530036
I530048
tp1542
a(I1549
I6
I530048
I530078
tp1543
a(I1550
I43
I530078
I531884
tp1544
a(I1551
I27
I531884
I532586
tp1545
a(I1552
I13
I532586
I532742
tp1546
a(I1553
I38
I532742
I534148
tp1547
a(I1554
I14
I534148
I534330
tp1548
a(I1555
I10
I534330
I534420
tp1549
a(I1556
I6
I534420
I534450
tp1550
a(I1557
I11
I534450
I534560
tp1551
a(I1558
I4
I534560
I534572
tp1552
a(I1559
I13
I534572
I534728
tp1553
a(I1560
I13
I534728
I534884
tp1554
a(I1561
I5
I534884
I534904
tp1555
a(I1562
I16
I534904
I535144
tp1556
a(I1563
I7
I535144
I535186
tp1557
a(I1564
I11
I535186
I535296
tp1558
a(I1565
I7
I535296
I535338
tp1559
a(I1566
I3
I535338
I535344
tp1560
a(I1567
I33
I535344
I536400
tp1561
a(I1568
I14
I536400
I536582
tp1562
a(I1569
I11
I536582
I536692
tp1563
a(I1570
I13
I536692
I536848
tp1564
a(I1571
I10
I536848
I536938
tp1565
a(I1572
I9
I536938
I537010
tp1566
a(I1573
I4
I537010
I537022
tp1567
a(I1574
I3
I537022
I537028
tp1568
a(I1575
I20
I537028
I537408
tp1569
a(I1576
I4
I537408
I537420
tp1570
a(I1577
I14
I537420
I537602
tp1571
a(I1578
I20
I537602
I537982
tp1572
a(I1579
I21
I537982
I538402
tp1573
a(I1580
I27
I538402
I539104
tp1574
a(I1581
I7
I539104
I539146
tp1575
a(I1582
I27
I539146
I539848
tp1576
a(I1583
I43
I539848
I541654
tp1577
a(I1584
I10
I541654
I541744
tp1578
a(I1585
I4
I541744
I541756
tp1579
a(I1586
I10
I541756
I541846
tp1580
a(I1587
I19
I541846
I542188
tp1581
a(I1588
I5
I542188
I542208
tp1582
a(I1589
I8
I542208
I542264
tp1583
a(I1590
I2
I542264
I542266
tp1584
a(I1591
I10
I542266
I542356
tp1585
a(I1592
I12
I542356
I542488
tp1586
a(I1593
I9
I542488
I542560
tp1587
a(I1594
I19
I542560
I542902
tp1588
a(I1595
I5
I542902
I542922
tp1589
a(I1596
I6
I542922
I542952
tp1590
a(I1597
I18
I542952
I543258
tp1591
a(I1598
I23
I543258
I543764
tp1592
a(I1599
I22
I543764
I544226
tp1593
a(I1600
I14
I544226
I544408
tp1594
a(I1601
I37
I544408
I545740
tp1595
a(I1602
I51
I545740
I548290
tp1596
a(I1603
I1
I548290
I548290
tp1597
a(I1604
I6
I548290
I548320
tp1598
a(I1605
I18
I548320
I548626
tp1599
a(I1606
I15
I548626
I548836
tp1600
a(I1607
I5
I548836
I548856
tp1601
a(I1608
I2
I548856
I548858
tp1602
a(I1609
I12
I548858
I548990
tp1603
a(I1610
I21
I548990
I549410
tp1604
a(I1611
I1
I549410
I549410
tp1605
a(I1612
I14
I549410
I549592
tp1606
a(I1613
I35
I549592
I550782
tp1607
a(I1614
I7
I550782
I550824
tp1608
a(I1615
I35
I550824
I552014
tp1609
a(I1616
I22
I552014
I552476
tp1610
a(I1617
I17
I552476
I552748
tp1611
a(I1618
I17
I552748
I553020
tp1612
a(I1619
I15
I553020
I553230
tp1613
a(I1620
I12
I553230
I553362
tp1614
a(I1621
I14
I553362
I553544
tp1615
a(I1622
I13
I553544
I553700
tp1616
a(I1623
I21
I553700
I554120
tp1617
a(I1624
I1
I554120
I554120
tp1618
a(I1625
I23
I554120
I554626
tp1619
a(I1626
I12
I554626
I554758
tp1620
a(I1627
I14
I554758
I554940
tp1621
a(I1628
I6
I554940
I554970
tp1622
a(I1629
I14
I554970
I555152
tp1623
a(I1630
I5
I555152
I555172
tp1624
a(I1631
I20
I555172
I555552
tp1625
a(I1632
I17
I555552
I555824
tp1626
a(I1633
I13
I555824
I555980
tp1627
a(I1634
I4
I555980
I555992
tp1628
a(I1635
I16
I555992
I556232
tp1629
a(I1636
I50
I556232
I558682
tp1630
a(I1637
I20
I558682
I559062
tp1631
a(I1638
I6
I559062
I559092
tp1632
a(I1639
I10
I559092
I559182
tp1633
a(I1640
I13
I559182
I559338
tp1634
a(I1641
I5
I559338
I559358
tp1635
a(I1642
I8
I559358
I559414
tp1636
a(I1643
I11
I559414
I559524
tp1637
a(I1644
I20
I559524
I559904
tp1638
a(I1645
I11
I559904
I560014
tp1639
a(I1646
I3
I560014
I560020
tp1640
a(I1647
I2
I560020
I560022
tp1641
a(I1648
I38
I560022
I561428
tp1642
a(I1649
I15
I561428
I561638
tp1643
a(I1650
I13
I561638
I561794
tp1644
a(I1651
I1
I561794
I561794
tp1645
a(I1652
I40
I561794
I563354
tp1646
a(I1653
I34
I563354
I564476
tp1647
a(I1654
I47
I564476
I566638
tp1648
a(I1655
I7
I566638
I566680
tp1649
a(I1656
I24
I566680
I567232
tp1650
a(I1657
I6
I567232
I567262
tp1651
a(I1658
I8
I567262
I567318
tp1652
a(I1659
I19
I567318
I567660
tp1653
a(I1660
I2
I567660
I567662
tp1654
a(I1661
I25
I567662
I568262
tp1655
a(I1662
I18
I568262
I568568
tp1656
a(I1663
I11
I568568
I568678
tp1657
a(I1664
I15
I568678
I568888
tp1658
a(I1665
I2
I568888
I568890
tp1659
a(I1666
I24
I568890
I569442
tp1660
a(I1667
I15
I569442
I569652
tp1661
a(I1668
I14
I569652
I569834
tp1662
a(I1669
I13
I569834
I569990
tp1663
a(I1670
I24
I569990
I570542
tp1664
a(I1671
I8
I570542
I570598
tp1665
a(I1672
I16
I570598
I570838
tp1666
a(I1673
I28
I570838
I571594
tp1667
a(I1674
I28
I571594
I572350
tp1668
a(I1675
I9
I572350
I572422
tp1669
a(I1676
I9
I572422
I572494
tp1670
a(I1677
I26
I572494
I573144
tp1671
a(I1678
I16
I573144
I573384
tp1672
a(I1679
I4
I573384
I573396
tp1673
a(I1680
I42
I573396
I575118
tp1674
a(I1681
I7
I575118
I575160
tp1675
a(I1682
I8
I575160
I575216
tp1676
a(I1683
I36
I575216
I576476
tp1677
a(I1684
I12
I576476
I576608
tp1678
a(I1685
I20
I576608
I576988
tp1679
a(I1686
I12
I576988
I577120
tp1680
a(I1687
I13
I577120
I577276
tp1681
a(I1688
I3
I577276
I577282
tp1682
a(I1689
I14
I577282
I577464
tp1683
a(I1690
I6
I577464
I577494
tp1684
a(I1691
I7
I577494
I577536
tp1685
a(I1692
I8
I577536
I577592
tp1686
a(I1693
I25
I577592
I578192
tp1687
a(I1694
I23
I578192
I578698
tp1688
a(I1695
I18
I578698
I579004
tp1689
a(I1696
I10
I579004
I579094
tp1690
a(I1697
I8
I579094
I579150
tp1691
a(I1698
I23
I579150
I579656
tp1692
a(I1699
I10
I579656
I579746
tp1693
a(I1700
I6
I579746
I579776
tp1694
a(I1701
I3
I579776
I579782
tp1695
a(I1702
I2
I579782
I579784
tp1696
a(I1703
I8
I579784
I579840
tp1697
a(I1704
I22
I579840
I580302
tp1698
a(I1705
I5
I580302
I580322
tp1699
a(I1706
I48
I580322
I582578
tp1700
a(I1707
I12
I582578
I582710
tp1701
a(I1708
I12
I582710
I582842
tp1702
a(I1709
I17
I582842
I583114
tp1703
a(I1710
I19
I583114
I583456
tp1704
a(I1711
I4
I583456
I583468
tp1705
a(I1712
I25
I583468
I584068
tp1706
a(I1713
I3
I584068
I584074
tp1707
a(I1714
I17
I584074
I584346
tp1708
a(I1715
I11
I584346
I584456
tp1709
a(I1716
I5
I584456
I584476
tp1710
a(I1717
I14
I584476
I584658
tp1711
a(I1718
I9
I584658
I584730
tp1712
a(I1719
I5
I584730
I584750
tp1713
a(I1720
I21
I584750
I585170
tp1714
a(I1721
I10
I585170
I585260
tp1715
a(I1722
I27
I585260
I585962
tp1716
a(I1723
I20
I585962
I586342
tp1717
a(I1724
I73
I586342
I591598
tp1718
a(I1725
I25
I591598
I592198
tp1719
a(I1726
I11
I592198
I592308
tp1720
a(I1727
I8
I592308
I592364
tp1721
a(I1728
I19
I592364
I592706
tp1722
a(I1729
I4
I592706
I592718
tp1723
a(I1730
I7
I592718
I592760
tp1724
a(I1731
I14
I592760
I592942
tp1725
a(I1732
I10
I592942
I593032
tp1726
a(I1733
I5
I593032
I593052
tp1727
a(I1734
I14
I593052
I593234
tp1728
a(I1735
I33
I593234
I594290
tp1729
a(I1736
I25
I594290
I594890
tp1730
a(I1737
I17
I594890
I595162
tp1731
a(I1738
I8
I595162
I595218
tp1732
a(I1739
I3
I595218
I595224
tp1733
a(I1740
I8
I595224
I595280
tp1734
a(I1741
I4
I595280
I595292
tp1735
a(I1742
I5
I595292
I595312
tp1736
a(I1743
I24
I595312
I595864
tp1737
a(I1744
I8
I595864
I595920
tp1738
a(I1745
I15
I595920
I596130
tp1739
a(I1746
I19
I596130
I596472
tp1740
a(I1747
I10
I596472
I596562
tp1741
a(I1748
I7
I596562
I596604
tp1742
a(I1749
I3
I596604
I596610
tp1743
a(I1750
I2
I596610
I596612
tp1744
a(I1751
I6
I596612
I596642
tp1745
a(I1752
I31
I596642
I597572
tp1746
a(I1753
I6
I597572
I597602
tp1747
a(I1754
I3
I597602
I597608
tp1748
a(I1755
I47
I597608
I599770
tp1749
a(I1756
I17
I599770
I600042
tp1750
a(I1757
I21
I600042
I600462
tp1751
a(I1758
I6
I600462
I600492
tp1752
a(I1759
I15
I600492
I600702
tp1753
a(I1760
I17
I600702
I600974
tp1754
a(I1761
I4
I600974
I600986
tp1755
a(I1762
I57
I600986
I604178
tp1756
a(I1763
I7
I604178
I604220
tp1757
a(I1764
I9
I604220
I604292
tp1758
a(I1765
I3
I604292
I604298
tp1759
a(I1766
I40
I604298
I605858
tp1760
a(I1767
I15
I605858
I606068
tp1761
a(I1768
I10
I606068
I606158
tp1762
a(I1769
I31
I606158
I607088
tp1763
a(I1770
I1
I607088
I607088
tp1764
a(I1771
I1
I607088
I607088
tp1765
a(I1772
I45
I607088
I609068
tp1766
a(I1773
I9
I609068
I609140
tp1767
a(I1774
I19
I609140
I609482
tp1768
a(I1775
I5
I609482
I609502
tp1769
a(I1776
I12
I609502
I609634
tp1770
a(I1777
I19
I609634
I609976
tp1771
a(I1778
I23
I609976
I610482
tp1772
a(I1779
I13
I610482
I610638
tp1773
a(I1780
I3
I610638
I610644
tp1774
a(I1781
I12
I610644
I610776
tp1775
a(I1782
I6
I610776
I610806
tp1776
a(I1783
I6
I610806
I610836
tp1777
a(I1784
I42
I610836
I612558
tp1778
a(I1785
I2
I612558
I612560
tp1779
a(I1786
I12
I612560
I612692
tp1780
a(I1787
I17
I612692
I612964
tp1781
a(I1788
I7
I612964
I613006
tp1782
a(I1789
I16
I613006
I613246
tp1783
a(I1790
I3
I613246
I613252
tp1784
a(I1791
I13
I613252
I613408
tp1785
a(I1792
I32
I613408
I614400
tp1786
a(I1793
I6
I614400
I614430
tp1787
a(I1794
I10
I614430
I614520
tp1788
a(I1795
I26
I614520
I615170
tp1789
a(I1796
I5
I615170
I615190
tp1790
a(I1797
I18
I615190
I615496
tp1791
a(I1798
I12
I615496
I615628
tp1792
a(I1799
I17
I615628
I615900
tp1793
a(I1800
I11
I615900
I616010
tp1794
a(I1801
I2
I616010
I616012
tp1795
a(I1802
I3
I616012
I616018
tp1796
a(I1803
I6
I616018
I616048
tp1797
a(I1804
I25
I616048
I616648
tp1798
a(I1805
I26
I616648
I617298
tp1799
a(I1806
I44
I617298
I619190
tp1800
a(I1807
I6
I619190
I619220
tp1801
a(I1808
I4
I619220
I619232
tp1802
a(I1809
I4
I619232
I619244
tp1803
a(I1810
I13
I619244
I619400
tp1804
a(I1811
I5
I619400
I619420
tp1805
a(I1812
I5
I619420
I619440
tp1806
a(I1813
I16
I619440
I619680
tp1807
a(I1814
I12
I619680
I619812
tp1808
a(I1815
I8
I619812
I619868
tp1809
a(I1816
I2
I619868
I619870
tp1810
a(I1817
I21
I619870
I620290
tp1811
a(I1818
I3
I620290
I620296
tp1812
a(I1819
I29
I620296
I621108
tp1813
a(I1820
I7
I621108
I621150
tp1814
a(I1821
I18
I621150
I621456
tp1815
a(I1822
I3
I621456
I621462
tp1816
a(I1823
I28
I621462
I622218
tp1817
a(I1824
I3
I622218
I622224
tp1818
a(I1825
I45
I622224
I624204
tp1819
a(I1826
I8
I624204
I624260
tp1820
a(I1827
I4
I624260
I624272
tp1821
a(I1828
I89
I624272
I632104
tp1822
a(I1829
I9
I632104
I632176
tp1823
a(I1830
I2
I632176
I632178
tp1824
a(I1831
I44
I632178
I634070
tp1825
a(I1832
I14
I634070
I634252
tp1826
a(I1833
I25
I634252
I634852
tp1827
a(I1834
I5
I634852
I634872
tp1828
a(I1835
I17
I634872
I635144
tp1829
a(I1836
I26
I635144
I635794
tp1830
a(I1837
I6
I635794
I635824
tp1831
a(I1838
I35
I635824
I637014
tp1832
a(I1839
I24
I637014
I637566
tp1833
a(I1840
I6
I637566
I637596
tp1834
a(I1841
I32
I637596
I638588
tp1835
a(I1842
I8
I638588
I638644
tp1836
a(I1843
I17
I638644
I638916
tp1837
a(I1844
I6
I638916
I638946
tp1838
a(I1845
I4
I638946
I638958
tp1839
a(I1846
I21
I638958
I639378
tp1840
a(I1847
I22
I639378
I639840
tp1841
a(I1848
I39
I639840
I641322
tp1842
a(I1849
I31
I641322
I642252
tp1843
a(I1850
I6
I642252
I642282
tp1844
a(I1851
I4
I642282
I642294
tp1845
a(I1852
I42
I642294
I644016
tp1846
a(I1853
I4
I644016
I644028
tp1847
a(I1854
I6
I644028
I644058
tp1848
a(I1855
I11
I644058
I644168
tp1849
a(I1856
I28
I644168
I644924
tp1850
a(I1857
I7
I644924
I644966
tp1851
a(I1858
I10
I644966
I645056
tp1852
a(I1859
I7
I645056
I645098
tp1853
a(I1860
I28
I645098
I645854
tp1854
a(I1861
I33
I645854
I646910
tp1855
a(I1862
I45
I646910
I648890
tp1856
a(I1863
I8
I648890
I648946
tp1857
a(I1864
I13
I648946
I649102
tp1858
a(I1865
I22
I649102
I649564
tp1859
a(I1866
I25
I649564
I650164
tp1860
a(I1867
I23
I650164
I650670
tp1861
a(I1868
I7
I650670
I650712
tp1862
a(I1869
I8
I650712
I650768
tp1863
a(I1870
I4
I650768
I650780
tp1864
a(I1871
I10
I650780
I650870
tp1865
a(I1872
I47
I650870
I653032
tp1866
a(I1873
I35
I653032
I654222
tp1867
a(I1874
I6
I654222
I654252
tp1868
a(I1875
I8
I654252
I654308
tp1869
a(I1876
I13
I654308
I654464
tp1870
a(I1877
I10
I654464
I654554
tp1871
a(I1878
I4
I654554
I654566
tp1872
a(I1879
I35
I654566
I655756
tp1873
a(I1880
I8
I655756
I655812
tp1874
a(I1881
I3
I655812
I655818
tp1875
a(I1882
I41
I655818
I657458
tp1876
a(I1883
I5
I657458
I657478
tp1877
a(I1884
I9
I657478
I657550
tp1878
a(I1885
I2
I657550
I657552
tp1879
a(I1886
I3
I657552
I657558
tp1880
a(I1887
I27
I657558
I658260
tp1881
a(I1888
I7
I658260
I658302
tp1882
a(I1889
I12
I658302
I658434
tp1883
a(I1890
I27
I658434
I659136
tp1884
a(I1891
I4
I659136
I659148
tp1885
a(I1892
I4
I659148
I659160
tp1886
a(I1893
I25
I659160
I659760
tp1887
a(I1894
I44
I659760
I661652
tp1888
a(I1895
I4
I661652
I661664
tp1889
a(I1896
I8
I661664
I661720
tp1890
a(I1897
I41
I661720
I663360
tp1891
a(I1898
I2
I663360
I663362
tp1892
a(I1899
I32
I663362
I664354
tp1893
a(I1900
I31
I664354
I665284
tp1894
a(I1901
I6
I665284
I665314
tp1895
a(I1902
I7
I665314
I665356
tp1896
a(I1903
I2
I665356
I665358
tp1897
a(I1904
I6
I665358
I665388
tp1898
a(I1905
I9
I665388
I665460
tp1899
a(I1906
I4
I665460
I665472
tp1900
a(I1907
I4
I665472
I665484
tp1901
a(I1908
I3
I665484
I665490
tp1902
a(I1909
I4
I665490
I665502
tp1903
a(I1910
I2
I665502
I665504
tp1904
a(I1911
I2
I665504
I665506
tp1905
a(I1912
I9
I665506
I665578
tp1906
a(I1913
I24
I665578
I666130
tp1907
a(I1914
I6
I666130
I666160
tp1908
a(I1915
I32
I666160
I667152
tp1909
a(I1916
I26
I667152
I667802
tp1910
a(I1917
I13
I667802
I667958
tp1911
a(I1918
I38
I667958
I669364
tp1912
a(I1919
I51
I669364
I671914
tp1913
a(I1920
I6
I671914
I671944
tp1914
a(I1921
I49
I671944
I674296
tp1915
a(I1922
I6
I674296
I674326
tp1916
a(I1923
I29
I674326
I675138
tp1917
a(I1924
I51
I675138
I677688
tp1918
a(I1925
I14
I677688
I677870
tp1919
a(I1926
I5
I677870
I677890
tp1920
a(I1927
I20
I677890
I678270
tp1921
a(I1928
I20
I678270
I678650
tp1922
a(I1929
I23
I678650
I679156
tp1923
a(I1930
I6
I679156
I679186
tp1924
a(I1931
I1
I679186
I679186
tp1925
a(I1932
I20
I679186
I679566
tp1926
a(I1933
I24
I679566
I680118
tp1927
a(I1934
I6
I680118
I680148
tp1928
a(I1935
I4
I680148
I680160
tp1929
a(I1936
I5
I680160
I680180
tp1930
a(I1937
I50
I680180
I682630
tp1931
a(I1938
I29
I682630
I683442
tp1932
a(I1939
I33
I683442
I684498
tp1933
a(I1940
I6
I684498
I684528
tp1934
a(I1941
I22
I684528
I684990
tp1935
a(I1942
I23
I684990
I685496
tp1936
a(I1943
I18
I685496
I685802
tp1937
a(I1944
I26
I685802
I686452
tp1938
a(I1945
I4
I686452
I686464
tp1939
a(I1946
I11
I686464
I686574
tp1940
a(I1947
I11
I686574
I686684
tp1941
a(I1948
I14
I686684
I686866
tp1942
a(I1949
I46
I686866
I688936
tp1943
a(I1950
I3
I688936
I688942
tp1944
a(I1951
I15
I688942
I689152
tp1945
a(I1952
I32
I689152
I690144
tp1946
a(I1953
I41
I690144
I691784
tp1947
a(I1954
I1
I691784
I691784
tp1948
a(I1955
I41
I691784
I693424
tp1949
a(I1956
I5
I693424
I693444
tp1950
a(I1957
I7
I693444
I693486
tp1951
a(I1958
I12
I693486
I693618
tp1952
a(I1959
I1
I693618
I693618
tp1953
a(I1960
I6
I693618
I693648
tp1954
a(I1961
I4
I693648
I693660
tp1955
a(I1962
I17
I693660
I693932
tp1956
a(I1963
I30
I693932
I694802
tp1957
a(I1964
I8
I694802
I694858
tp1958
a(I1965
I9
I694858
I694930
tp1959
a(I1966
I25
I694930
I695530
tp1960
a(I1967
I20
I695530
I695910
tp1961
a(I1968
I4
I695910
I695922
tp1962
a(I1969
I8
I695922
I695978
tp1963
a(I1970
I4
I695978
I695990
tp1964
a(I1971
I7
I695990
I696032
tp1965
a(I1972
I7
I696032
I696074
tp1966
a(I1973
I19
I696074
I696416
tp1967
a(I1974
I19
I696416
I696758
tp1968
a(I1975
I8
I696758
I696814
tp1969
a(I1976
I15
I696814
I697024
tp1970
a(I1977
I7
I697024
I697066
tp1971
a(I1978
I5
I697066
I697086
tp1972
a(I1979
I43
I697086
I698892
tp1973
a(I1980
I11
I698892
I699002
tp1974
a(I1981
I21
I699002
I699422
tp1975
a(I1982
I8
I699422
I699478
tp1976
a(I1983
I17
I699478
I699750
tp1977
a(I1984
I7
I699750
I699792
tp1978
a(I1985
I15
I699792
I700002
tp1979
a(I1986
I13
I700002
I700158
tp1980
a(I1987
I39
I700158
I701640
tp1981
a(I1988
I13
I701640
I701796
tp1982
a(I1989
I38
I701796
I703202
tp1983
a(I1990
I7
I703202
I703244
tp1984
a(I1991
I11
I703244
I703354
tp1985
a(I1992
I8
I703354
I703410
tp1986
a(I1993
I6
I703410
I703440
tp1987
a(I1994
I10
I703440
I703530
tp1988
a(I1995
I29
I703530
I704342
tp1989
a(I1996
I16
I704342
I704582
tp1990
a(I1997
I4
I704582
I704594
tp1991
a(I1998
I2
I704594
I704596
tp1992
a(I1999
I29
I704596
I705408
tp1993
a(I2000
I31
I705408
I706338
tp1994
a(I2001
I14
I706338
I706520
tp1995
a(I2002
I30
I706520
I707390
tp1996
a(I2003
I5
I707390
I707410
tp1997
a(I2004
I6
I707410
I707440
tp1998
a(I2005
I16
I707440
I707680
tp1999
a(I2006
I25
I707680
I708280
tp2000
a(I2007
I8
I708280
I708336
tp2001
a(I2008
I9
I708336
I708408
tp2002
a(I2009
I2
I708408
I708410
tp2003
a(I2010
I6
I708410
I708440
tp2004
a(I2011
I7
I708440
I708482
tp2005
a(I2012
I5
I708482
I708502
tp2006
a(I2013
I28
I708502
I709258
tp2007
a(I2014
I23
I709258
I709764
tp2008
a(I2015
I13
I709764
I709920
tp2009
a(I2016
I11
I709920
I710030
tp2010
a(I2017
I20
I710030
I710410
tp2011
a(I2018
I26
I710410
I711060
tp2012
a(I2019
I47
I711060
I713222
tp2013
a(I2020
I6
I713222
I713252
tp2014
a(I2021
I33
I713252
I714308
tp2015
a(I2022
I28
I714308
I715064
tp2016
a(I2023
I8
I715064
I715120
tp2017
a(I2024
I18
I715120
I715426
tp2018
a(I2025
I4
I715426
I715438
tp2019
a(I2026
I15
I715438
I715648
tp2020
a(I2027
I13
I715648
I715804
tp2021
a(I2028
I9
I715804
I715876
tp2022
a(I2029
I46
I715876
I717946
tp2023
a(I2030
I10
I717946
I718036
tp2024
a(I2031
I4
I718036
I718048
tp2025
a(I2032
I4
I718048
I718060
tp2026
a(I2033
I28
I718060
I718816
tp2027
a(I2034
I8
I718816
I718872
tp2028
a(I2035
I3
I718872
I718878
tp2029
a(I2036
I36
I718878
I720138
tp2030
a(I2037
I5
I720138
I720158
tp2031
a(I2038
I11
I720158
I720268
tp2032
a(I2039
I8
I720268
I720324
tp2033
a(I2040
I13
I720324
I720480
tp2034
a(I2041
I28
I720480
I721236
tp2035
a(I2042
I10
I721236
I721326
tp2036
a(I2043
I18
I721326
I721632
tp2037
a(I2044
I18
I721632
I721938
tp2038
a(I2045
I23
I721938
I722444
tp2039
a(I2046
I6
I722444
I722474
tp2040
a(I2047
I11
I722474
I722584
tp2041
a(I2048
I14
I722584
I722766
tp2042
a(I2049
I15
I722766
I722976
tp2043
a(I2050
I21
I722976
I723396
tp2044
a(I2051
I16
I723396
I723636
tp2045
a(I2052
I24
I723636
I724188
tp2046
a(I2053
I6
I724188
I724218
tp2047
a(I2054
I1
I724218
I724218
tp2048
a(I2055
I13
I724218
I724374
tp2049
a(I2056
I5
I724374
I724394
tp2050
a(I2057
I8
I724394
I724450
tp2051
a(I2058
I8
I724450
I724506
tp2052
a(I2059
I7
I724506
I724548
tp2053
a(I2060
I7
I724548
I724590
tp2054
a(I2061
I33
I724590
I725646
tp2055
a(I2062
I13
I725646
I725802
tp2056
a(I2063
I9
I725802
I725874
tp2057
a(I2064
I53
I725874
I728630
tp2058
a(I2065
I14
I728630
I728812
tp2059
a(I2066
I7
I728812
I728854
tp2060
a(I2067
I4
I728854
I728866
tp2061
a(I2068
I36
I728866
I730126
tp2062
a(I2069
I21
I730126
I730546
tp2063
a(I2070
I9
I730546
I730618
tp2064
a(I2071
I63
I730618
I734524
tp2065
a(I2072
I18
I734524
I734830
tp2066
a(I2073
I10
I734830
I734920
tp2067
a(I2074
I3
I734920
I734926
tp2068
a(I2075
I29
I734926
I735738
tp2069
a(I2076
I2
I735738
I735740
tp2070
a(I2077
I4
I735740
I735752
tp2071
a(I2078
I15
I735752
I735962
tp2072
a(I2079
I4
I735962
I735974
tp2073
a(I2080
I21
I735974
I736394
tp2074
a(I2081
I13
I736394
I736550
tp2075
a(I2082
I2
I736550
I736552
tp2076
a(I2083
I7
I736552
I736594
tp2077
a(I2084
I9
I736594
I736666
tp2078
a(I2085
I14
I736666
I736848
tp2079
a(I2086
I3
I736848
I736854
tp2080
a(I2087
I38
I736854
I738260
tp2081
a(I2088
I16
I738260
I738500
tp2082
a(I2089
I5
I738500
I738520
tp2083
a(I2090
I26
I738520
I739170
tp2084
a(I2091
I18
I739170
I739476
tp2085
a(I2092
I16
I739476
I739716
tp2086
a(I2093
I6
I739716
I739746
tp2087
a(I2094
I16
I739746
I739986
tp2088
a(I2095
I3
I739986
I739992
tp2089
a(I2096
I4
I739992
I740004
tp2090
a(I2097
I20
I740004
I740384
tp2091
a(I2098
I39
I740384
I741866
tp2092
a(I2099
I10
I741866
I741956
tp2093
a(I2100
I18
I741956
I742262
tp2094
a(I2101
I6
I742262
I742292
tp2095
a(I2102
I6
I742292
I742322
tp2096
a(I2103
I20
I742322
I742702
tp2097
a(I2104
I4
I742702
I742714
tp2098
a(I2105
I18
I742714
I743020
tp2099
a(I2106
I3
I743020
I743026
tp2100
a(I2107
I5
I743026
I743046
tp2101
a(I2108
I3
I743046
I743052
tp2102
a(I2109
I19
I743052
I743394
tp2103
a(I2110
I13
I743394
I743550
tp2104
a(I2111
I7
I743550
I743592
tp2105
a(I2112
I40
I743592
I745152
tp2106
a(I2113
I2
I745152
I745154
tp2107
a(I2114
I5
I745154
I745174
tp2108
a(I2115
I62
I745174
I748956
tp2109
a(I2116
I3
I748956
I748962
tp2110
a(I2117
I3
I748962
I748968
tp2111
a(I2118
I21
I748968
I749388
tp2112
a(I2119
I11
I749388
I749498
tp2113
a(I2120
I1
I749498
I749498
tp2114
a(I2121
I4
I749498
I749510
tp2115
a(I2122
I8
I749510
I749566
tp2116
a(I2123
I5
I749566
I749586
tp2117
a(I2124
I2
I749586
I749588
tp2118
a(I2125
I11
I749588
I749698
tp2119
a(I2126
I18
I749698
I750004
tp2120
a(I2127
I4
I750004
I750016
tp2121
a(I2128
I4
I750016
I750028
tp2122
a(I2129
I2
I750028
I750030
tp2123
a(I2130
I8
I750030
I750086
tp2124
a(I2131
I31
I750086
I751016
tp2125
a(I2132
I10
I751016
I751106
tp2126
a(I2133
I10
I751106
I751196
tp2127
a(I2134
I12
I751196
I751328
tp2128
a(I2135
I13
I751328
I751484
tp2129
a(I2136
I2
I751484
I751486
tp2130
a(I2137
I30
I751486
I752356
tp2131
a(I2138
I15
I752356
I752566
tp2132
a(I2139
I3
I752566
I752572
tp2133
a(I2140
I22
I752572
I753034
tp2134
a(I2141
I17
I753034
I753306
tp2135
a(I2142
I38
I753306
I754712
tp2136
a(I2143
I16
I754712
I754952
tp2137
a(I2144
I17
I754952
I755224
tp2138
a(I2145
I9
I755224
I755296
tp2139
a(I2146
I13
I755296
I755452
tp2140
a(I2147
I47
I755452
I757614
tp2141
a(I2148
I3
I757614
I757620
tp2142
a(I2149
I5
I757620
I757640
tp2143
a(I2150
I3
I757640
I757646
tp2144
a(I2151
I28
I757646
I758402
tp2145
a(I2152
I5
I758402
I758422
tp2146
a(I2153
I11
I758422
I758532
tp2147
a(I2154
I6
I758532
I758562
tp2148
a(I2155
I10
I758562
I758652
tp2149
a(I2156
I20
I758652
I759032
tp2150
a(I2157
I26
I759032
I759682
tp2151
a(I2158
I2
I759682
I759684
tp2152
a(I2159
I17
I759684
I759956
tp2153
a(I2160
I2
I759956
I759958
tp2154
a(I2161
I23
I759958
I760464
tp2155
a(I2162
I18
I760464
I760770
tp2156
a(I2163
I4
I760770
I760782
tp2157
a(I2164
I14
I760782
I760964
tp2158
a(I2165
I12
I760964
I761096
tp2159
a(I2166
I5
I761096
I761116
tp2160
a(I2167
I9
I761116
I761188
tp2161
a(I2168
I6
I761188
I761218
tp2162
a(I2169
I15
I761218
I761428
tp2163
a(I2170
I47
I761428
I763590
tp2164
a(I2171
I2
I763590
I763592
tp2165
a(I2172
I23
I763592
I764098
tp2166
a(I2173
I14
I764098
I764280
tp2167
a(I2174
I22
I764280
I764742
tp2168
a(I2175
I7
I764742
I764784
tp2169
a(I2176
I5
I764784
I764804
tp2170
a(I2177
I34
I764804
I765926
tp2171
a(I2178
I14
I765926
I766108
tp2172
a(I2179
I6
I766108
I766138
tp2173
a(I2180
I32
I766138
I767130
tp2174
a(I2181
I12
I767130
I767262
tp2175
a(I2182
I16
I767262
I767502
tp2176
a(I2183
I6
I767502
I767532
tp2177
a(I2184
I3
I767532
I767538
tp2178
a(I2185
I5
I767538
I767558
tp2179
a(I2186
I10
I767558
I767648
tp2180
a(I2187
I3
I767648
I767654
tp2181
a(I2188
I7
I767654
I767696
tp2182
a(I2189
I22
I767696
I768158
tp2183
a(I2190
I7
I768158
I768200
tp2184
a(I2191
I4
I768200
I768212
tp2185
a(I2192
I6
I768212
I768242
tp2186
a(I2193
I7
I768242
I768284
tp2187
a(I2194
I14
I768284
I768466
tp2188
a(I2195
I29
I768466
I769278
tp2189
a(I2196
I7
I769278
I769320
tp2190
a(I2197
I5
I769320
I769340
tp2191
a(I2198
I19
I769340
I769682
tp2192
a(I2199
I11
I769682
I769792
tp2193
a(I2200
I3
I769792
I769798
tp2194
a(I2201
I1
I769798
I769798
tp2195
a(I2202
I5
I769798
I769818
tp2196
a(I2203
I18
I769818
I770124
tp2197
a(I2204
I7
I770124
I770166
tp2198
a(I2205
I17
I770166
I770438
tp2199
a(I2206
I7
I770438
I770480
tp2200
a(I2207
I3
I770480
I770486
tp2201
a(I2208
I11
I770486
I770596
tp2202
a(I2209
I10
I770596
I770686
tp2203
a(I2210
I2
I770686
I770688
tp2204
a(I2211
I7
I770688
I770730
tp2205
a(I2212
I3
I770730
I770736
tp2206
a(I2213
I21
I770736
I771156
tp2207
a(I2214
I11
I771156
I771266
tp2208
a(I2215
I4
I771266
I771278
tp2209
a(I2216
I11
I771278
I771388
tp2210
a(I2217
I11
I771388
I771498
tp2211
a(I2218
I7
I771498
I771540
tp2212
a(I2219
I8
I771540
I771596
tp2213
a(I2220
I4
I771596
I771608
tp2214
a(I2221
I9
I771608
I771680
tp2215
a(I2222
I3
I771680
I771686
tp2216
a(I2223
I22
I771686
I772148
tp2217
a(I2224
I16
I772148
I772388
tp2218
a(I2225
I13
I772388
I772544
tp2219
a(I2226
I5
I772544
I772564
tp2220
a(I2227
I1
I772564
I772564
tp2221
a(I2228
I17
I772564
I772836
tp2222
a(I2229
I4
I772836
I772848
tp2223
a(I2230
I6
I772848
I772878
tp2224
a(I2231
I4
I772878
I772890
tp2225
a(I2232
I7
I772890
I772932
tp2226
a(I2233
I20
I772932
I773312
tp2227
a(I2234
I12
I773312
I773444
tp2228
a(I2235
I4
I773444
I773456
tp2229
a(I2236
I11
I773456
I773566
tp2230
a(I2237
I33
I773566
I774622
tp2231
a(I2238
I9
I774622
I774694
tp2232
a(I2239
I32
I774694
I775686
tp2233
a(I2240
I27
I775686
I776388
tp2234
a(I2241
I32
I776388
I777380
tp2235
a(I2242
I15
I777380
I777590
tp2236
a(I2243
I13
I777590
I777746
tp2237
a(I2244
I13
I777746
I777902
tp2238
a(I2245
I10
I777902
I777992
tp2239
a(I2246
I5
I777992
I778012
tp2240
a(I2247
I13
I778012
I778168
tp2241
a(I2248
I10
I778168
I778258
tp2242
a(I2249
I15
I778258
I778468
tp2243
a(I2250
I7
I778468
I778510
tp2244
a.