(lp0
V55031181e9bde69634000014
p1
aV55046d5ff8aee20f27000007
p2
aV54e25eaaae9738404b000017
p3
aV535d292a9a4572de6f000003
p4
aV55262a9787ecba3764000009
p5
aV51406e6223fec90375000009
p6
aV52f8b2902059c6d71c000053
p7
aV553fa78b1d53b76422000007
p8
aV5149199dd24251bc05000040
p9
aV52bf1db603868f1b06000011
p10
aV5709e4b2cf1c32585100001c
p11
aV56bc751eac7ad10019000013
p12
aV54d4e03a3706e89528000001
p13
aV55072c803b8a5dc045000001
p14
aV53061af558348c0f52000002
p15
aV56c1f01def6e394741000045
p16
aV5313b049e3eabad021000013
p17
aV54d643023706e89528000007
p18
aV53137541e3eabad021000010
p19
aV515aa0abd24251bc050000a8
p20
aV56af9f130a360a5e45000015
p21
aV5718bbb37de986d80d00000b
p22
aV532f062ad6d3ac6a34000027
p23
aV52bf1b0a03868f1b06000009
p24
aV517395b98ed59a060a00001a
p25
aV52bf19c503868f1b06000001
p26
aV54db1d580f63c58e6e000005
p27
aV54f9d3eedd3fc62544000004
p28
aV5505edac8e1671127b000005
p29
aV5160193d298dcd4e51000039
p30
aV51593dc8d24251bc05000099
p31
aV56e2cec751531f7e33000015
p32
aV515deafd298dcd4e51000025
p33
aV532624ae600967d132000005
p34
aV5518e7da622b194345000004
p35
aV52f11bf22059c6d71c000005
p36
aV530a5117970c65fa6b000007
p37
aV56bf365eef6e39474100000e
p38
aV52bf202003868f1b06000018
p39
aV552fac4fbc4f83e828000006
p40
aV56be0da3ef6e394741000007
p41
aV5158644cd24251bc0500008e
p42
aV515a7ffdd24251bc050000a5
p43
aV54cf7051f693c3b16b000013
p44
aV56a92be0a17756b72f000009
p45
aV54f08d4a94afd61504000016
p46
aV54f49995d0d681a040000002
p47
aV531d2aa5267d7dd053000003
p48
aV56bf3a79ef6e39474100000f
p49
aV54fefff26ad7dcbc1200000b
p50
aV571f34ac0fd6f91b68000005
p51
aV54e0d1491388e8454a000014
p52
aV553a8d78f321868558000003
p53
aV51404dd723fec90375000002
p54
aV552fa6f5bc4f83e828000002
p55
aV56d0451c3975bb303a00000e
p56
aV54ede8c594afd61504000009
p57
aV56c3327c50c68dd41600000c
p58
aV551c23bc6b348bb82c00000b
p59
aV5314a7a4dae131f847000003
p60
aV535d78137d100faa09000005
p61
aV56c6dd275795f9a73e000008
p62
aV56c1f02cef6e39474100004c
p63
aV550af222c2af5d5b7000000b
p64
aV5318a955b166e2b806000020
p65
aV531a3fe3b166e2b806000038
p66
aV532819afd6d3ac6a3400000f
p67
aV51757bbb8ed59a060a00002e
p68
aV56c1f03bef6e394741000053
p69
aV52d946c798d023950500000a
p70
aV5322d9339b2d7acc7e000011
p71
aV535d75ab7d100faa09000004
p72
aV56d1d14567f0cb3d66000003
p73
aV532498959b2d7acc7e000017
p74
aV56c1f005ef6e39474100003a
p75
aV513ce3c8bee46bd34c000008
p76
aV553f78c7ab98a37113000008
p77
aV56d06e043975bb303a000011
p78
aV56d8b27651531f7e33000003
p79
aV571e1e11bb137a4b0c000004
p80
aV552fa32fbc4f83e828000001
p81
aV52f77edb2059c6d71c000028
p82
aV5509f433c2af5d5b70000008
p83
aV553fa2201d53b76422000005
p84
aV52fa73c62059c6d71c000058
p85
aV533f9df0c45e133714000016
p86
aV56a3a386496b62f23f000007
p87
aV56c1f038ef6e394741000051
p88
aV531a34d5b166e2b806000036
p89
aV56c1f029ef6e39474100004a
p90
aV56cdf40d5795f9a73e00003d
p91
aV571529efcb4ef8864c000001
p92
aV52b2ec744003448f55000001
p93
aV530e42e65937551c09000007
p94
aV53358cd2d6d3ac6a3400004e
p95
aV52b2d405f828ad283c000009
p96
aV550324d7e9bde6963400002f
p97
aV52f125332059c6d71c000007
p98
aV5158a5b8d24251bc05000097
p99
aV553653a5bc4f83e828000007
p100
aV5344310baeec6fbd0700000c
p101
aV56c868a95795f9a73e000017
p102
aV54dcb29dc0bb8dce23000004
p103
aV516e5f41298dcd4e5100007f
p104
aV511a51331159fa8212000009
p105
aV56ed27012ac5ed145900000b
p106
aV533c388dc45e133714000008
p107
aV518cb4b5310faafe08000006
p108
aV56c3323a50c68dd416000009
p109
aV52f223e02059c6d71c00000e
p110
aV5343caffaeec6fbd07000002
p111
aV56a39d60496b62f23f000006
p112
aV5150b807d24251bc05000072
p113
aV56c81fd15795f9a73e00000c
p114
aV52f5083d2059c6d71c00001e
p115
aV56cf413f3975bb303a000009
p116
aV56c1d857ef6e394741000033
p117
aV5140569623fec90375000003
p118
aV552faa43bc4f83e828000004
p119
aV52fe58f82059c6d71c00007a
p120
aV533c3af6c45e13371400000d
p121
aV56c5fd325795f9a73e000005
p122
aV571f3b320fd6f91b68000007
p123
aV5319ac99b166e2b806000034
p124
aV54f89e1a06d9727f76000001
p125
aV5357bd56f1005d6b58000009
p126
aV54d65b6b3706e8952800000c
p127
aV517a8c918ed59a060a000043
p128
aV571f2b5bbb137a4b0c000010
p129
aV52fb4b462059c6d71c00005f
p130
aV56c1d848ef6e39474100002f
p131
aV571e275dbb137a4b0c000005
p132
aV51739df58ed59a060a00001c
p133
aV5168023b298dcd4e51000061
p134
aV530f7cdde3eabad021000001
p135
aV56e857ae42442bac75000004
p136
aV5509c52f1180f13250000004
p137
aV535d2cf09a4572de6f000004
p138
aV55475dc2f35db75526000001
p139
aV56c073fcef6e394741000020
p140
aV550320cbe9bde6963400002d
p141
aV53312464d6d3ac6a3400003a
p142
aV56f3f6b12ac5ed145900001a
p143
aV511a4d391159fa8212000003
p144
aV52fe52702059c6d71c000078
p145
aV517137c18ed59a060a000001
p146
aV56b3efc38525abca1e000006
p147
aV5509df4ac2af5d5b70000003
p148
aV5339ecf4d6d3ac6a3400005f
p149
aV56ae35bc0a360a5e45000007
p150
aV532083389b2d7acc7e000003
p151
aV571e3d42bb137a4b0c000007
p152
aV53386282d6d3ac6a3400005a
p153
aV5717d64f29809bbe7a000001
p154
aV531d7430267d7dd053000008
p155
aV55031650e9bde69634000026
p156
aV56c8f4615795f9a73e00001a
p157
aV54fc97b86ad7dcbc12000002
p158
aV56ccae765795f9a73e000035
p159
aV51598b08d24251bc0500009f
p160
aV56f112932ac5ed145900000d
p161
aV56cf50253975bb303a00000b
p162
aV5523f1a62c8b63434a000002
p163
aV52df8ce798d023950500000d
p164
aV5713c4a11174fb1755000013
p165
aV5311cdcce3eabad021000007
p166
aV51659356298dcd4e5100005a
p167
aV54ede5df94afd61504000007
p168
aV54f4703764850a5854000008
p169
aV552421082c8b63434a000005
p170
aV5505b9ff8e1671127b000001
p171
aV56b29bf545561f0573000003
p172
aV52ef7170c8da898910000012
p173
aV5719f5b27de986d80d00000c
p174
aV532f08b8d6d3ac6a34000029
p175
aV5710a592cf1c32585100002a
p176
aV57169662cb4ef8864c000008
p177
aV54d77f0e3706e8952800001b
p178
aV532366f09b2d7acc7e000015
p179
aV57090784cf1c325851000011
p180
aV55414a763f2354b713000003
p181
aV52ed795098d0239505000032
p182
aV55000cc4e9bde69634000004
p183
aV54ede28094afd61504000003
p184
aV56ecfd572ac5ed1459000002
p185
aV54f57892d0d681a040000009
p186
aV56ebfa13107309bc2f000004
p187
aV56c0708eef6e39474100001f
p188
aV515ac533d24251bc050000a9
p189
aV533c2230c45e133714000002
p190
aV511979b04eab811676000003
p191
aV514241fcd24251bc05000006
p192
aV5709ee36cf1c32585100001e
p193
aV517179718ed59a060a00000e
p194
aV553cae13f32186855800000e
p195
aV56a7d5afa17756b72f000002
p196
aV54d649843706e89528000009
p197
aV52f7c4bd2059c6d71c00002d
p198
aV53188c12b166e2b80600001a
p199
aV569ed752ceceede94d000004
p200
aV56f802ea09dd18d46b000017
p201
aV5335c7f2d6d3ac6a34000051
p202
aV531b2fc3b166e2b80600003c
p203
aV531376c8e3eabad021000012
p204
aV5545186cbf90a13052000002
p205
aV5312280ce3eabad02100000a
p206
aV5357a6d0f1005d6b58000004
p207
aV5523dc8c7b523f2123000002
p208
aV5710ade4cf1c32585100002c
p209
aV517a8ce98ed59a060a000045
p210
aV56ed14d92ac5ed145900000a
p211
aV57092332cf1c325851000018
p212
aV54df69af1388e8454a000005
p213
aV5536554abc4f83e828000008
p214
aV532673c4d6d3ac6a34000009
p215
aV56f3f0f02ac5ed1459000017
p216
aV56ed03862ac5ed1459000004
p217
aV54f9cb34dd3fc62544000002
p218
aV53009f6d2059c6d71c00007e
p219
aV51485b9ad24251bc0500002b
p220
aV5512cce26a8cde6b7200000c
p221
aV532c0946d6d3ac6a34000019
p222
aV532ad23ad6d3ac6a34000011
p223
aV511a16f9df1ebcce7d000005
p224
aV535d3c069a4572de6f000006
p225
aV530cf57efe2466f70c000006
p226
aV515df063298dcd4e51000029
p227
aV530cf57efe2466f70c000001
p228
aV54d73e223706e89528000010
p229
aV56b8f28a156496395c000006
p230
aV56b2863945561f0573000001
p231
aV515db083298dcd4e51000012
p232
aV51640b4a298dcd4e51000050
p233
aV55058af6f73303d458000004
p234
aV56c71cb65795f9a73e00000b
p235
aV5156be75d24251bc05000088
p236
aV57169b63cb4ef8864c00000b
p237
aV5162da97298dcd4e51000048
p238
aV56d1a9baab2fed4a47000002
p239
aV56bb154aac7ad10019000003
p240
aV535d35779a4572de6f000005
p241
aV55184d46622b194345000001
p242
aV5318a6b2b166e2b80600001f
p243
aV52f7d3472059c6d71c00002f
p244
aV56b7083376d8bf8d13000001
p245
aV52bf1df903868f1b06000013
p246
aV54cf43abf693c3b16b000008
p247
aV52f89ee42059c6d71c00004d
p248
aV55391ce8bc4f83e828000018
p249
aV5319ac7fb166e2b806000033
p250
aV534428feaeec6fbd0700000a
p251
aV552016a36b348bb82c000018
p252
aV518cb513310faafe08000007
p253
aV5159cc88d24251bc050000a4
p254
aV56b8841189239fd259000001
p255
aV51542dc3d24251bc0500007e
p256
aV532f0511d6d3ac6a34000024
p257
aV5325de7d9b2d7acc7e000029
p258
aV531d76a2267d7dd05300000a
p259
aV55376663bc4f83e82800000a
p260
aV51595fb0d24251bc0500009c
p261
aV52f11b922059c6d71c000004
p262
aV52f88a972059c6d71c000033
p263
aV536787467d100faa09000010
p264
aV56c077e9ef6e394741000021
p265
aV54d9071a4b1fd0d33c000007
p266
aV551c2cd26b348bb82c00000d
p267
aV5547d700f35db75526000007
p268
aV5316111fb166e2b806000001
p269
aV54e22ee4ae9738404b000013
p270
aV571f609c0fd6f91b6800000c
p271
aV55032e65e9bde69634000034
p272
aV5717d86029809bbe7a000003
p273
aV51406dd123fec90375000008
p274
aV56e45bc651531f7e33000018
p275
aV531b1e3cb166e2b80600003b
p276
aV53319916d6d3ac6a3400003f
p277
aV52d832dd98d0239505000003
p278
aV56bb616dac7ad10019000008
p279
aV56bdc452a36a056b3d000001
p280
aV56b39f148525abca1e000004
p281
aV56b3a3ce8525abca1e000005
p282
aV55152c0a46478f2f2c000004
p283
aV5144bc8fd24251bc0500000e
p284
aV532f3e08d6d3ac6a34000034
p285
aV514a0f4ad24251bc05000053
p286
aV52fc94572059c6d71c000070
p287
aV56c4a217b04e159d0e000001
p288
aV535d59349a4572de6f000009
p289
aV51651e24298dcd4e51000054
p290
aV56bc8d65ac7ad1001900001a
p291
aV57089865cf1c32585100000c
p292
aV56c1d84cef6e394741000031
p293
aV5713bf261174fb1755000011
p294
aV5335b373d6d3ac6a34000050
p295
aV54cf4a0ef693c3b16b00000c
p296
aV513eec89bee46bd34c00000d
p297
aV56f15c5a2ac5ed1459000012
p298
aV56bb54d3ac7ad10019000006
p299
aV52fbe2bf2059c6d71c00006c
p300
aV52b2e498f828ad283c000010
p301
aV5309fa5e970c65fa6b000003
p302
aV5503121de9bde69634000019
p303
aV5147c088d24251bc05000026
p304
aV5719f5c67de986d80d00000d
p305
aV5503263fe9bde69634000030
p306
aV5167be1a298dcd4e5100005c
p307
aV56f6a63d09dd18d46b00000c
p308
aV5549f7a1f35db7552600000d
p309
aV54f5f8925f206a0c06000003
p310
aV5175b97a8ed59a060a00002f
p311
aV5309f8f5970c65fa6b000001
p312
aV56c23652ef6e39474100005a
p313
aV52f89fba2059c6d71c00004f
p314
aV517901bc8ed59a060a00003b
p315
aV5517f9286487737b43000002
p316
aV52ec961098d023950500002a
p317
aV56d1d94667f0cb3d66000005
p318
aV54e0e902ae9738404b000001
p319
aV532ff558d6d3ac6a34000037
p320
aV51588c34d24251bc05000095
p321
aV554356d0ed966d112c000005
p322
aV532206819b2d7acc7e00000f
p323
aV5335ebb6d6d3ac6a34000054
p324
aV56d29d4df22319765a000003
p325
aV54d8fd334b1fd0d33c000005
p326
aV52ea605098d0239505000028
p327
aV52f89fc62059c6d71c000050
p328
aV5176c6d08ed59a060a000032
p329
aV54fc98f16ad7dcbc12000003
p330
aV513f4025bee46bd34c000011
p331
aV52f350042059c6d71c000010
p332
aV56c9e9d15795f9a73e00001d
p333
aV54f60ae05f206a0c06000008
p334
aV517a8cc68ed59a060a000044
p335
aV5318367cb166e2b806000012
p336
aV517138d98ed59a060a000003
p337
aV52e8e98298d0239505000020
p338
aV554403395beec11c10000001
p339
aV53175e4fb166e2b806000008
p340
aV56c8318f5795f9a73e00000f
p341
aV5324a8ac9b2d7acc7e000018
p342
aV571e172bbb137a4b0c000002
p343
aV53359338d6d3ac6a3400004f
p344
aV56b330bb39c782df06000001
p345
aV56be06cdef6e394741000004
p346
aV57090c33cf1c325851000013
p347
aV5318b452b166e2b806000021
p348
aV515d1ff7298dcd4e51000009
p349
aV56ed27202ac5ed145900000c
p350
aV56cae5125795f9a73e000024
p351
aV5341d15dc45e133714000018
p352
aV5157539ed24251bc0500008a
p353
aV55424745ed966d112c000002
p354
aV5157fce5d24251bc0500008c
p355
aV530cf4e0c8a0b4a00c000004
p356
aV530cf4e0c8a0b4a00c000005
p357
aV530cf4e0c8a0b4a00c000002
p358
aV51753a948ed59a060a000029
p359
aV56b73c7a345adcac48000002
p360
aV530cf4e0c8a0b4a00c000006
p361
aV56bb1b4eac7ad10019000004
p362
aV530cf4e0c8a0b4a00c000007
p363
aV530a34eb970c65fa6b000004
p364
aV52e0141498d023950500000e
p365
aV572096c90fd6f91b6800000e
p366
aV532bf822d6d3ac6a34000016
p367
aV553f8bc11d53b76422000002
p368
aV570a7594cf1c325851000026
p369
aV5173bdb38ed59a060a000020
p370
aV56e19eba51531f7e33000012
p371
aV56a8b1a5a17756b72f000004
p372
aV5518e817622b194345000006
p373
aV53442ca9aeec6fbd0700000b
p374
aV532c147bd6d3ac6a3400001e
p375
aV530cefaaad0bf1360c000003
p376
aV56d19ffaab2fed4a47000001
p377
aV530cefaaad0bf1360c000002
p378
aV530cefaaad0bf1360c000001
p379
aV530cefaaad0bf1360c000007
p380
aV530cefaaad0bf1360c000006
p381
aV55032bbfe9bde69634000032
p382
aV530cefaaad0bf1360c000005
p383
aV530cefaaad0bf1360c000004
p384
aV52ecf2dd98d023950500002e
p385
aV52efbfccc8da898910000018
p386
aV518ccac0310faafe0800000b
p387
aV55476a3ff35db75526000003
p388
aV52d63b2803868f1b0600003a
p389
aV530cefaaad0bf1360c000009
p390
aV5319abe4b166e2b80600002e
p391
aV55031963e9bde6963400002a
p392
aV530cefaaad0bf1360c000008
p393
aV54ff30dc6ad7dcbc1200000f
p394
aV52fa74252059c6d71c00005b
p395
aV530cefaaad0bf1360c000012
p396
aV53398855d6d3ac6a3400005b
p397
aV530cefaaad0bf1360c000011
p398
aV532361fd9b2d7acc7e000013
p399
aV55031628e9bde69634000024
p400
aV56d1da3b67f0cb3d66000006
p401
aV56c048e2ef6e39474100001d
p402
aV51713cb58ed59a060a000006
p403
aV530cefaaad0bf1360c000010
p404
aV56f3f94109dd18d46b000001
p405
aV530f685c329f5fcf1e000002
p406
aV530cefaaad0bf1360c00000c
p407
aV56e05a7b51531f7e3300000d
p408
aV55423fc0ed966d112c000001
p409
aV530cefaaad0bf1360c00000b
p410
aV530cefaaad0bf1360c00000a
p411
aV530cefaaad0bf1360c00000f
p412
aV54f09a5894afd6150400001c
p413
aV530cefaaad0bf1360c00000e
p414
aV530cefaaad0bf1360c00000d
p415
aV5159502dd24251bc0500009b
p416
aV515a9d86d24251bc050000a7
p417
aV516425ff298dcd4e51000051
p418
aV533c3571c45e133714000005
p419
aV56f6d11c09dd18d46b00000f
p420
aV550c4011a103b78016000009
p421
aV514a59c2d24251bc0500005d
p422
aV54f1e887c409818c32000004
p423
aV53124e84e3eabad02100000c
p424
aV55191149622b194345000010
p425
aV54d670163706e8952800000f
p426
aV554763f0f35db75526000002
p427
aV5324cf139b2d7acc7e00001f
p428
aV52e204a998d0239505000012
p429
aV5709152ecf1c325851000014
p430
aV5162af0f298dcd4e51000045
p431
aV56bc9268ac7ad1001900001b
p432
aV54ff5197e9bde69634000001
p433
aV5343fc1aaeec6fbd07000003
p434
aV54cf705ff693c3b16b000014
p435
aV51763a278ed59a060a000030
p436
aV5357a514f1005d6b58000003
p437
aV5150b5c4d24251bc05000070
p438
aV56c1d85cef6e394741000034
p439
aV56c44ce83aaba2a675000001
p440
aV56d2ee61f22319765a000007
p441
aV5171a1498ed59a060a000012
p442
aV5321bc029b2d7acc7e00000c
p443
aV516be1d6298dcd4e5100006a
p444
aV56d860ad51531f7e33000002
p445
aV5150b45ad24251bc0500006f
p446
aV530b01a6970c65fa6b000008
p447
aV52bf1cad03868f1b0600000a
p448
aV56f12ca92ac5ed145900000e
p449
aV54d77bdf3706e89528000019
p450
aV552faababc4f83e828000005
p451
aV5316d4fcb166e2b806000005
p452
aV51680a49298dcd4e51000062
p453
aV56be0a18ef6e394741000006
p454
aV55390901bc4f83e828000014
p455
aV56c341acfedd0b786b000001
p456
aV54cf48acf693c3b16b00000b
p457
aV5545e926d355485447000002
p458
aV5311b99ae3eabad021000004
p459
aV53189656b166e2b80600001c
p460
aV5131fa145274a5fb07000009
p461
aV5171393e8ed59a060a000005
p462
aV54d6562c3706e8952800000b
p463
aV55435aeced966d112c000007
p464
aV515ddda6298dcd4e5100001f
p465
aV5344194daeec6fbd07000006
p466
aV56bc7d71ac7ad10019000018
p467
aV5314c045dae131f847000007
p468
aV51630226298dcd4e5100004d
p469
aV56d3346cf22319765a000008
p470
aV56cc947b5795f9a73e000033
p471
aV52b2e1d8f828ad283c00000c
p472
aV55411d9f379ddf3f47000001
p473
aV515dd9a0298dcd4e5100001e
p474
aV5505eed08e1671127b000006
p475
aV55451e53bf90a13052000003
p476
aV54f4914bd0d681a040000001
p477
aV54d907c84b1fd0d33c000008
p478
aV550342a8f8aee20f27000002
p479
aV52b2ecd34003448f55000003
p480
aV550313aae9bde6963400001f
p481
aV52eea509c8da89891000000d
p482
aV515df6f2298dcd4e5100002d
p483
aV551177626a8cde6b72000005
p484
aV551ae6c564b14b4618000001
p485
aV56bdc79bef6e394741000001
p486
aV52fa70142059c6d71c000056
p487
aV516c0dc6298dcd4e5100006c
p488
aV52fc94ae2059c6d71c000073
p489
aV54e1252fae9738404b000003
p490
aV515da6e2298dcd4e51000010
p491
aV54fc3cf410565e080c000001
p492
aV532aad53d6d3ac6a34000010
p493
aV56cafb1b5795f9a73e00002f
p494
aV533175add6d3ac6a3400003c
p495
aV53175f0bb166e2b80600000c
p496
aV56cf32e23975bb303a000006
p497
aV5118dd1305c10fae75000001
p498
aV56c234a4ef6e394741000059
p499
aV572211540fd6f91b68000016
p500
aV534ebb59288f4dae47000004
p501
aV54f7291630767eb92e000002
p502
aV517a8bef8ed59a060a000041
p503
aV5148885ad24251bc05000032
p504
aV54d7ae1fe19bba8909000001
p505
aV571e189dbb137a4b0c000003
p506
aV532f55fed6d3ac6a34000036
p507
aV533eba45c45e133714000014
p508
aV54eded8c94afd6150400000c
p509
aV550895c12e93f0133a000002
p510
aV55435a46ed966d112c000006
p511
aV52bf1f4503868f1b06000016
p512
aV52eeddfcc8da898910000010
p513
aV54fc48bb6ea36a810c000002
p514
aV5519110f622b19434500000c
p515
aV54ff45966ad7dcbc12000010
p516
aV56f56a8609dd18d46b00000b
p517
aV550c3754a103b78016000007
p518
aV517a8b768ed59a060a00003f
p519
aV54fb6fb5d176fff445000004
p520
aV532ad4b4d6d3ac6a34000012
p521
aV52fa6ac72059c6d71c000055
p522
aV56f7c44109dd18d46b000013
p523
aV5710a650cf1c32585100002b
p524
aV56c1f003ef6e394741000039
p525
aV571e14fbbb137a4b0c000001
p526
aV532c0c21d6d3ac6a3400001b
p527
aV5544bcde5beec11c10000003
p528
aV52f77f4d2059c6d71c00002a
p529
aV57136a7e1174fb1755000006
p530
aV514b335dd24251bc05000061
p531
aV5501b3b3e9bde69634000007
p532
aV56a3a6c9496b62f23f000008
p533
aV5718a69e7de986d80d00000a
p534
aV56c02bc3ef6e394741000018
p535
aV5166f41a298dcd4e5100005b
p536
aV56b469448525abca1e000007
p537
aV52efc016c8da89891000001a
p538
aV517539af8ed59a060a000026
p539
aV56c095b7ef6e394741000025
p540
aV53357193d6d3ac6a34000047
p541
aV57167625cb4ef8864c000006
p542
aV52d2818403868f1b06000033
p543
aV56cf27293975bb303a000003
p544
aV52efc001c8da898910000019
p545
aV571e2beabb137a4b0c000006
p546
aV54ede5a494afd61504000005
p547
aV52f77f892059c6d71c00002c
p548
aV56e5b445edfc094c1f000001
p549
aV55032179e9bde6963400002e
p550
aV5708a845cf1c32585100000f
p551
aV51405cd123fec90375000005
p552
aV5311ceeae3eabad021000008
p553
aV56f555b609dd18d46b000007
p554
aV52f8a7eb2059c6d71c000052
p555
aV52f385052059c6d71c000011
p556
aV52f88a062059c6d71c000032
p557
aV53443b13aeec6fbd0700000e
p558
aV571cd9537de986d80d00000e
p559
aV553c994af32186855800000b
p560
aV5503133ae9bde6963400001d
p561
aV530b7ae4970c65fa6b00000b
p562
aV54e061ee1388e8454a00000c
p563
aV56e83a2342442bac75000001
p564
aV54c26e29f693c3b16b000003
p565
aV553d061cf321868558000013
p566
aV569e731cca240fa209000003
p567
aV55152c2946478f2f2c000005
p568
aV513832a75274a5fb07000012
p569
aV56f553aa09dd18d46b000005
p570
aV52b2e409f828ad283c00000e
p571
aV5325b0419b2d7acc7e000026
p572
aV56c1f040ef6e394741000055
p573
aV5179602c8ed59a060a00003d
p574
aV554614bcd355485447000004
p575
aV56c1f043ef6e394741000057
p576
aV54f4b319d0d681a040000005
p577
aV52f896ae2059c6d71c000045
p578
aV56c2fbd91e69116444000001
p579
aV5507fc114b2a315d41000003
p580
aV5162e9df298dcd4e5100004b
p581
aV56f24fec2ac5ed1459000015
p582
aV52eceada98d023950500002d
p583
aV5318380bb166e2b806000013
p584
aV54e1bdacae9738404b000009
p585
aV515d71ee298dcd4e5100000b
p586
aV56f146db2ac5ed145900000f
p587
aV5321bc309b2d7acc7e00000d
p588
aV51588bb2d24251bc05000091
p589
aV571cdd227de986d80d00000f
p590
aV54f9b74306d9727f76000004
p591
aV53440d2caeec6fbd07000004
p592
aV530c7f52970c65fa6b000010
p593
aV56e6dfc2edfc094c1f000003
p594
aV531d744c267d7dd053000009
p595
aV55241f9e2c8b63434a000004
p596
aV52ee9f55c8da898910000009
p597
aV5173b5ea8ed59a060a00001f
p598
aV54da0c524b1fd0d33c00000b
p599
aV54ff106b6ad7dcbc1200000c
p600
aV54d8e59f4b1fd0d33c000001
p601
aV57169a49cb4ef8864c00000a
p602
aV52e92c6e98d0239505000024
p603
aV513efe01bee46bd34c00000e
p604
aV5324cca79b2d7acc7e00001d
p605
aV56ae67a40a360a5e4500000c
p606
aV54f431d664850a5854000006
p607
aV55376b37bc4f83e82800000b
p608
aV5354f289288f4dae47000008
p609
aV54d8efb84b1fd0d33c000003
p610
aV550c3d45a103b78016000008
p611
aV515ac941d24251bc050000ab
p612
aV56ae2fab0a360a5e45000006
p613
aV570a5343cf1c325851000022
p614
aV56cdf5315795f9a73e000046
p615
aV5713b29f1174fb175500000f
p616
aV56f780cb09dd18d46b000011
p617
aV5141bcd423fec9037500000d
p618
aV54edf27e94afd61504000010
p619
aV52b2f1014003448f5500000a
p620
aV5717dbfe7de986d80d000001
p621
aV54ede34694afd61504000004
p622
aV52bf1af803868f1b06000008
p623
aV517575558ed59a060a00002d
p624
aV56cf20eb3975bb303a000001
p625
aV5314ad66dae131f847000004
p626
aV550303a5e9bde6963400000c
p627
aV56ed0ffe2ac5ed1459000008
p628
aV51bdf045047fa84d1d000003
p629
aV56b76d916e3f8eaf4c000001
p630
aV550e6688a103b7801600000d
p631
aV56d1ddd267f0cb3d66000008
p632
aV5177def18ed59a060a000034
p633
aV513f4249bee46bd34c000012
p634
aV515db020298dcd4e51000011
p635
aV553d0c1df321868558000014
p636
aV515de643298dcd4e51000022
p637
aV56f4011709dd18d46b000003
p638
aV552033206b348bb82c00001b
p639
aV51635202298dcd4e5100004f
p640
aV56ae5a8a0a360a5e4500000b
p641
aV533c2a55c45e133714000003
p642
aV530e131b5937551c09000002
p643
aV553f72edab98a37113000007
p644
aV52cae04c03868f1b06000024
p645
aV5318813ab166e2b806000016
p646
aV5506ce078e1671127b00000b
p647
aV55031406e9bde69634000021
p648
aV54fc99f36ad7dcbc12000004
p649
aV5548da00f35db7552600000b
p650
aV571394701174fb175500000c
p651
aV551d8b3a6b348bb82c000011
p652
aV530db83b38c1322806000002
p653
aV5717fb557de986d80d000009
p654
aV532f0bd6d6d3ac6a3400002d
p655
aV56c1f007ef6e39474100003b
p656
aV551173c26a8cde6b72000004
p657
aV56e46ad951531f7e3300001a
p658
aV56f82a39cf1c325851000001
p659
aV52efc05cc8da89891000001c
p660
aV571e4293bb137a4b0c00000b
p661
aV530cf22aa177c6630c000004
p662
aV516523fd298dcd4e51000055
p663
aV530cf22aa177c6630c000001
p664
aV53130a77e3eabad02100000f
p665
aV515e078e298dcd4e51000031
p666
aV530cf22aa177c6630c000005
p667
aV56acda7c0a360a5e45000005
p668
aV55167dec46478f2f2c00000a
p669
aV56c5feb75795f9a73e000006
p670
aV56bf487def6e394741000011
p671
aV54dcd8f61388e8454a000001
p672
aV5543a1b2ee40ea110c000001
p673
aV56cf2be73975bb303a000005
p674
aV54d669003706e8952800000e
p675
aV5171833c8ed59a060a00000f
p676
aV5713bc991174fb1755000010
p677
aV54fb4b34d176fff445000001
p678
aV5321bb019b2d7acc7e00000b
p679
aV56a39a32496b62f23f000005
p680
aV56c1f010ef6e394741000041
p681
aV51596a8ad24251bc0500009e
p682
aV5339ed7bd6d3ac6a34000060
p683
aV56c1f00def6e39474100003f
p684
aV571e12097de986d80d000017
p685
aV52bf1d3c03868f1b0600000d
p686
aV515de993298dcd4e51000024
p687
aV54fc9b236ad7dcbc12000005
p688
aV533ba218fd9a95ea0d000007
p689
aV5540fbce234c5a7c75000001
p690
aV52f77f042059c6d71c000029
p691
aV532f06e6d6d3ac6a34000028
p692
aV54fe09036ad7dcbc12000009
p693
aV5343bdd6aeec6fbd07000001
p694
aV52b2e97df828ad283c000012
p695
aV517295c18ed59a060a000016
p696
aV5311bcc2e3eabad021000005
p697
aV5148a2f6d24251bc05000035
p698
aV54fd5dd86ad7dcbc12000008
p699
aV5505c9008e1671127b000002
p700
aV54f08fa494afd61504000017
p701
aV531a31a1b166e2b806000035
p702
aV5505ad7ff73303d458000007
p703
aV52fe54252059c6d71c000079
p704
aV5326c6fed6d3ac6a3400000c
p705
aV5319a6c9b166e2b806000022
p706
aV532f05bdd6d3ac6a34000026
p707
aV52cb9b9b03868f1b0600002d
p708
aV56a37e33496b62f23f000003
p709
aV5518414a15fa47643f000001
p710
aV533d0f44c45e13371400000e
p711
aV56ae57350a360a5e4500000a
p712
aV56cca4da5795f9a73e000034
p713
aV515dc066298dcd4e5100001a
p714
aV54da21bf4b1fd0d33c00000d
p715
aV56e6ec49edfc094c1f000005
p716
aV53357ca0d6d3ac6a3400004b
p717
aV571f59cd0fd6f91b68000008
p718
aV553a5a34bc4f83e82800001a
p719
aV55423875ec76f5e50c000002
p720
aV52ce531f03868f1b06000031
p721
aV516e5f33298dcd4e5100007e
p722
aV55048939f8aee20f27000009
p723
aV51542dabd24251bc0500007d
p724
aV53354eafd6d3ac6a34000044
p725
aV55031d82e9bde6963400002c
p726
aV55253d7087ecba3764000008
p727
aV515d9e5c298dcd4e5100000e
p728
aV571ce13f7de986d80d000011
p729
aV550718e9fd1abe1741000001
p730
aV52b2ec944003448f55000002
p731
aV56c1f039ef6e394741000052
p732
aV533c3533c45e133714000004
p733
aV56c1f042ef6e394741000056
p734
aV533bf29cc45e133714000001
p735
aV515df98f298dcd4e51000030
p736
aV56b77a866e3f8eaf4c000004
p737
aV515de127298dcd4e51000020
p738
aV52f112bb2059c6d71c000002
p739
aV56c8efef5795f9a73e000019
p740
aV55203ae78e534a4535000001
p741
aV513f3ab6bee46bd34c00000f
p742
aV514217a6d24251bc05000005
p743
aV5357b5ecf1005d6b58000007
p744
aV532670e7d6d3ac6a34000008
p745
aV5358e067f1005d6b5800000b
p746
aV56b76f496e3f8eaf4c000002
p747
aV5319a7f2b166e2b80600002a
p748
aV53482bfcaeec6fbd07000010
p749
aV56cae60f5795f9a73e00002b
p750
aV56e0447a51531f7e3300000b
p751
aV56bb621fac7ad10019000009
p752
aV52f893f92059c6d71c00003c
p753
aV554140ad182542114d000003
p754
aV554148c23f2354b713000001
p755
aV5324cf869b2d7acc7e000020
p756
aV572099930fd6f91b6800000f
p757
aV56cb9b065795f9a73e000032
p758
aV56e073ad51531f7e3300000e
p759
aV52d1389303868f1b06000032
p760
aV5327139ad6d3ac6a3400000d
p761
aV56bdfa73ef6e394741000003
p762
aV53188480b166e2b806000018
p763
aV56f96333cf1c325851000004
p764
aV5727b6410fd6f91b6800001b
p765
aV55016397e9bde69634000006
p766
aV54ede76294afd61504000008
p767
aV52c7311903868f1b0600001d
p768
aV571366ba1174fb1755000005
p769
aV54c90dabf693c3b16b000004
p770
aV54f1e031c409818c32000001
p771
aV5507ea9a0195c16935000008
p772
aV52f8995b2059c6d71c00004a
p773
aV56bf7d90ef6e394741000015
p774
aV52b2f0864003448f55000007
p775
aV56c4d14ab04e159d0e000003
p776
aV56cdf4fe5795f9a73e000044
p777
aV532f09d2d6d3ac6a3400002b
p778
aV530cf4d5e2bfff940c000003
p779
aV52bf1dea03868f1b06000012
p780
aV55001420e9bde69634000005
p781
aV530cf4d5e2bfff940c000004
p782
aV513ce494bee46bd34c000009
p783
aV553cf397f321868558000010
p784
aV56c86aa95795f9a73e000018
p785
aV5537766dbc4f83e82800000d
p786
aV571f5e740fd6f91b6800000b
p787
aV531881acb166e2b806000017
p788
aV55376f19bc4f83e82800000c
p789
aV5319a7d2b166e2b806000029
p790
aV55439140ed966d112c00000a
p791
aV550c44d1a103b7801600000a
p792
aV5547a01cf35db75526000005
p793
aV51656c94298dcd4e51000058
p794
aV51485a4dd24251bc0500002a
p795
aV56b710f276d8bf8d13000003
p796
aV517539ca8ed59a060a000027
p797
aV54e12ae3ae9738404b000004
p798
aV554143ad182542114d000004
p799
aV55422640ccca0ce74b000004
p800
aV5317606eb166e2b80600000d
p801
aV56b739d976d8bf8d13000005
p802
aV5319abffb166e2b80600002f
p803
aV51600ca2298dcd4e51000037
p804
aV5148e42cd24251bc0500003b
p805
aV5319a6e9b166e2b806000023
p806
aV5314896adae131f847000001
p807
aV56c703445795f9a73e00000a
p808
aV56c344abfedd0b786b000003
p809
aV52bf208003868f1b06000019
p810
aV514a51c2d24251bc0500005c
p811
aV553e07caf321868558000016
p812
aV534bb147aeec6fbd07000014
p813
aV55086ea1098a1b487b000001
p814
aV5171651e8ed59a060a000009
p815
aV56b397a98525abca1e000003
p816
aV56c58ceeb04e159d0e000004
p817
aV54d62faf3706e89528000003
p818
aV56bb6b0eac7ad1001900000e
p819
aV55414c65472cfd8617000001
p820
aV517a8c238ed59a060a000042
p821
aV54edf72c94afd61504000013
p822
aV515df1d4298dcd4e5100002b
p823
aV53267871d6d3ac6a3400000a
p824
aV56e844c442442bac75000002
p825
aV56e68967edfc094c1f000002
p826
aV5159a306d24251bc050000a1
p827
aV56d138fe3975bb303a000015
p828
aV530e1c985937551c09000004
p829
aV56f403d009dd18d46b000004
p830
aV512d2fff5274a5fb07000006
p831
aV5326a85ad6d3ac6a3400000b
p832
aV515db3d8298dcd4e51000015
p833
aV56a3a8c7496b62f23f000009
p834
aV52fb20a32059c6d71c00005d
p835
aV52d783bf98d0239505000001
p836
aV51680a6d298dcd4e51000063
p837
aV56c1f00fef6e394741000040
p838
aV5540ca8a0083d1bf0e000003
p839
aV51585b28d24251bc0500008d
p840
aV5321b4959b2d7acc7e000007
p841
aV516c0ebc298dcd4e5100006e
p842
aV553d02c1f321868558000012
p843
aV515dd3d5298dcd4e5100001c
p844
aV55032d8be9bde69634000033
p845
aV54e262daae9738404b000018
p846
aV5540a8d20083d1bf0e000001
p847
aV5713b0a51174fb175500000e
p848
aV53329c84d6d3ac6a34000040
p849
aV533c394ec45e13371400000c
p850
aV56c8605b5795f9a73e000014
p851
aV552010076b348bb82c000015
p852
aV5319a80fb166e2b80600002b
p853
aV553c011af321868558000009
p854
aV550899c92e93f0133a000003
p855
aV56a7d32fa17756b72f000001
p856
aV550b0408c2af5d5b7000000c
p857
aV52d7b45e98d0239505000002
p858
aV52e8e96698d023950500001f
p859
aV5312f0f0e3eabad02100000d
p860
aV517404878ed59a060a000023
p861
aV54f704b630767eb92e000001
p862
aV56d1f790f22319765a000001
p863
aV52f3a9ef2059c6d71c000012
p864
aV571f33f10fd6f91b68000004
p865
aV51477de5d24251bc05000020
p866
aV57138eb21174fb175500000a
p867
aV56d2ae19f22319765a000006
p868
aV5328185dd6d3ac6a3400000e
p869
aV5321b8579b2d7acc7e000008
p870
aV52f77f752059c6d71c00002b
p871
aV513ce5f2bee46bd34c00000a
p872
aV5721f6f90fd6f91b68000012
p873
aV5524562387ecba3764000001
p874
aV5505a587f73303d458000005
p875
aV5722027a0fd6f91b68000014
p876
aV51486f7dd24251bc0500002e
p877
aV56c332a350c68dd41600000d
p878
aV530d7e8a38c1322806000001
p879
aV571394141174fb175500000b
p880
aV5544f3005beec11c10000008
p881
aV514a1469d24251bc05000056
p882
aV56cf236f3975bb303a000002
p883
aV55201a316b348bb82c000019
p884
aV54e221f6ae9738404b000010
p885
aV52ef7754c8da898910000014
p886
aV55032efde9bde69634000035
p887
aV56c097deef6e394741000027
p888
aV54d630283706e89528000004
p889
aV5516fc8832767d0305000002
p890
aV5318985eb166e2b80600001d
p891
aV5508453a4b2a315d41000008
p892
aV5319a724b166e2b806000025
p893
aV54ecb66d445c3b5a5f000002
p894
aV53188992b166e2b806000019
p895
aV52ebb2c698d0239505000029
p896
aV55414e4f472cfd8617000002
p897
aV514a2649d24251bc0500005a
p898
aV5713c7dd1174fb1755000014
p899
aV54f0920f94afd61504000018
p900
aV514a4679d24251bc0500005b
p901
aV57220e400fd6f91b68000015
p902
aV56afa7fd0a360a5e45000016
p903
aV553babc0f321868558000007
p904
aV5162c8a8298dcd4e51000047
p905
aV553656c4bc4f83e828000009
p906
aV5710a51bcf1c325851000029
p907
aV550bf315c2af5d5b7000000e
p908
aV56bdcc4cef6e394741000002
p909
aV57136cbf1174fb1755000007
p910
aV56a3bf0f496b62f23f00000a
p911
aV56c1d841ef6e39474100002d
p912
aV56c1d84aef6e394741000030
p913
aV56c1d85fef6e394741000036
p914
aV56c1d856ef6e394741000032
p915
aV56bb68a5ac7ad1001900000a
p916
aV516281e6298dcd4e51000040
p917
aV56c3326750c68dd41600000b
p918
aV516c0e08298dcd4e5100006d
p919
aV54d646403706e89528000008
p920
aV56c1f01aef6e394741000043
p921
aV5710dd61cf1c32585100002e
p922
aV5172f8118ed59a060a000019
p923
aV52e8e93498d023950500001e
p924
aV57091eefcf1c325851000016
p925
aV534df8c9aeec6fbd07000016
p926
aV53035d7c2059c6d71c000085
p927
aV56bb68f9ac7ad1001900000b
p928
aV54c12fd1f693c3b16b000001
p929
aV52d3cc5203868f1b06000037
p930
aV54d62ede3706e89528000002
p931
aV54f9ae2506d9727f76000002
p932
aV530e42bf5937551c09000005
p933
aV532c169ed6d3ac6a3400001f
p934
aV56c1f020ef6e394741000047
p935
aV52f4f2082059c6d71c00001d
p936
aV56b9c937ac7ad10019000001
p937
aV5162e011298dcd4e51000049
p938
aV513711055274a5fb0700000e
p939
aV56e30dd551531f7e33000016
p940
aV5713c8d71174fb1755000015
p941
aV52fc946d2059c6d71c000071
p942
aV51485008d24251bc05000028
p943
aV52e7bbf698d023950500001d
p944
aV51bdd9c2047fa84d1d000002
p945
aV54d892ee014675820d000005
p946
aV52f509512059c6d71c000020
p947
aV530e0d6e5937551c09000001
p948
aV530cf54dab4de4de0c000009
p949
aV5311bf53e3eabad021000006
p950
aV569e79ecceceede94d000002
p951
aV515bd543298dcd4e51000001
p952
aV52df887498d023950500000c
p953
aV52e6c92598d0239505000019
p954
aV57279ef20fd6f91b68000018
p955
aV56c1f011ef6e394741000042
p956
aV56a8d660a17756b72f000006
p957
aV5353aedb288f4dae47000006
p958
aV56e0813651531f7e33000010
p959
aV56c83f365795f9a73e000011
p960
aV5545dc7de233d84047000001
p961
aV531778ddb166e2b80600000f
p962
aV56d042ae3975bb303a00000d
p963
aV52bf1f1303868f1b06000014
p964
aV52f20d802059c6d71c00000a
p965
aV53355714d6d3ac6a34000045
p966
aV52fb42752059c6d71c00005e
p967
aV532f0c4ed6d3ac6a3400002e
p968
aV5509b6d22e93f0133a000005
p969
aV56be0e4aef6e394741000008
p970
aV550f0e4c6a8cde6b72000003
p971
aV5319ac36b166e2b806000031
p972
aV54dfc6501388e8454a000009
p973
aV52e0c9a298d0239505000010
p974
aV530cf54dab4de4de0c00000c
p975
aV515ed87c298dcd4e51000032
p976
aV52bf217003868f1b0600001b
p977
aV515dc691298dcd4e5100001b
p978
aV54d796f93706e8952800001e
p979
aV535d613f7d100faa09000002
p980
aV54f2228e64850a5854000002
p981
aV5323640b9b2d7acc7e000014
p982
aV516beae9298dcd4e5100006b
p983
aV56e2985951531f7e33000013
p984
aV51487ef9d24251bc05000031
p985
aV5505db6a8e1671127b000003
p986
aV531d1998267d7dd053000001
p987
aV56c9f9d95795f9a73e00001e
p988
aV54c225bcf693c3b16b000002
p989
aV5173a8b48ed59a060a00001d
p990
aV532c0d7fd6d3ac6a3400001c
p991
aV550c1ca3a103b78016000003
p992
aV530c844e970c65fa6b000014
p993
aV571653aecb4ef8864c000005
p994
aV52bf1d2e03868f1b0600000c
p995
aV52bf1aa503868f1b06000006
p996
aV569e7e99ceceede94d000003
p997
aV56cdf3995795f9a73e00003a
p998
aV56bc77a3ac7ad10019000015
p999
aV569e6c68ca240fa209000001
p1000
aV56c322d750c68dd416000004
p1001
aV56a375f8496b62f23f000002
p1002
aV56c06ef5ef6e39474100001e
p1003
aV5709e947cf1c32585100001d
p1004
aV553a9aa3f321868558000004
p1005
aV517a8bab8ed59a060a000040
p1006
aV5149a61ed24251bc05000044
p1007
aV56b8a525156496395c000002
p1008
aV56f3eebd2ac5ed1459000016
p1009
aV54cb9c94f693c3b16b000005
p1010
aV5519113b622b19434500000f
p1011
aV531d6bfc267d7dd053000007
p1012
aV56d19a363975bb303a000017
p1013
aV56ecffd62ac5ed1459000003
p1014
aV52b2f3b74003448f5500000c
p1015
aV5149f494d24251bc0500004c
p1016
aV56c33e5695c1e7cc5b000001
p1017
aV53552ed7f1005d6b58000001
p1018
aV5547a7e9f35db75526000006
p1019
aV52b2f1724003448f5500000b
p1020
aV51718fbc8ed59a060a000010
p1021
aV56cdf3e55795f9a73e00003c
p1022
aV570921e4cf1c325851000017
p1023
aV54df695b1388e8454a000004
p1024
aV56bcdf1ad36b5da378000009
p1025
aV550331abe9bde69634000037
p1026
aV54f42f2764850a5854000005
p1027
aV56f160a52ac5ed1459000013
p1028
aV54d9f7894b1fd0d33c00000a
p1029
aV553bd2f0f321868558000008
p1030
aV56ed0ba22ac5ed1459000007
p1031
aV51724fca8ed59a060a000013
p1032
aV56bcc455d36b5da378000003
p1033
aV56f1547c2ac5ed1459000010
p1034
aV570a5c27cf1c325851000023
p1035
aV5525317687ecba3764000007
p1036
aV5506c3e38e1671127b00000a
p1037
aV54fc4e2e6ea36a810c000003
p1038
aV52e8e99e98d0239505000021
p1039
aV56d85e7751531f7e33000001
p1040
aV56bb69d0ac7ad1001900000c
p1041
aV56e47e0051531f7e3300001c
p1042
aV54dfcdf81388e8454a00000a
p1043
aV5721f4b30fd6f91b68000011
p1044
aV56accec70a360a5e45000003
p1045
aV52e01f8f98d023950500000f
p1046
aV56cad5df5795f9a73e000020
p1047
aV52f89fd32059c6d71c000051
p1048
aV55263a1898daae017c000001
p1049
aV533675ced6d3ac6a34000056
p1050
aV52f895602059c6d71c000040
p1051
aV553c9f96f32186855800000c
p1052
aV56f3f2072ac5ed1459000018
p1053
aV53173fc5b166e2b806000006
p1054
aV56cf36263975bb303a000007
p1055
aV517170c48ed59a060a00000d
p1056
aV534eb34b288f4dae47000002
p1057
aV5710e131a5ed216440000001
p1058
aV5713394af9287de436000001
p1059
aV515b1eccd24251bc050000af
p1060
aV56e2acfe51531f7e33000014
p1061
aV517818508ed59a060a000035
p1062
aV517541e08ed59a060a00002a
p1063
aV56a8ee75a17756b72f000007
p1064
aV56d04a533975bb303a000010
p1065
aV5319a752b166e2b806000027
p1066
aV551829a76487737b43000009
p1067
aV56c1d85eef6e394741000035
p1068
aV554a0cadf35db7552600000f
p1069
aV534abe8aaeec6fbd07000013
p1070
aV571f33bd0fd6f91b68000003
p1071
aV53617eeb7d100faa0900000a
p1072
aV515def40298dcd4e51000028
p1073
aV52bf209303868f1b0600001a
p1074
aV55152bd246478f2f2c000002
p1075
aV516c3960298dcd4e51000073
p1076
aV54e0ac041388e8454a00000f
p1077
aV54e1c5d5ae9738404b00000b
p1078
aV570906fecf1c325851000010
p1079
aV52ef6da1c8da898910000011
p1080
aV5319ac18b166e2b806000030
p1081
aV5150b1f4d24251bc0500006a
p1082
aV553a7a59f321868558000002
p1083
aV52f129d92059c6d71c000009
p1084
aV534e364e288f4dae47000001
p1085
aV56f55cc809dd18d46b000008
p1086
aV533ea8fcc45e133714000010
p1087
aV515d9a42298dcd4e5100000d
p1088
aV55192f20622b194345000014
p1089
aV571e417bbb137a4b0c00000a
p1090
aV533c3871c45e133714000007
p1091
aV52fa73e82059c6d71c000059
p1092
aV515df5b2298dcd4e5100002c
p1093
aV54edf81f94afd61504000014
p1094
aV56c6f6005795f9a73e000009
p1095
aV554397f6ed966d112c00000c
p1096
aV551910d3622b194345000008
p1097
aV5314b20bdae131f847000005
p1098
aV52ef7786c8da898910000015
p1099
aV52fb78d82059c6d71c000068
p1100
aV571f30c40fd6f91b68000002
p1101
aV531e01ff267d7dd05300000e
p1102
aV535d5bac7d100faa09000001
p1103
aV56ed08062ac5ed1459000005
p1104
aV55200c606b348bb82c000013
p1105
aV55031270e9bde6963400001a
p1106
aV533aaab6d6d3ac6a34000062
p1107
aV532f08dcd6d3ac6a3400002a
p1108
aV56a8b8b5a17756b72f000005
p1109
aV516d5bc5298dcd4e51000079
p1110
aV56d2ac03f22319765a000004
p1111
aV56d046813975bb303a00000f
p1112
aV55391b2cbc4f83e828000017
p1113
aV54dc8ed6c0bb8dce23000002
p1114
aV52bf1f5f03868f1b06000017
p1115
aV5518e7a7622b194345000002
p1116
aV5324bdba9b2d7acc7e00001a
p1117
aV54f35ad864850a5854000004
p1118
aV54fefbbc6ad7dcbc1200000a
p1119
aV5727ab040fd6f91b68000019
p1120
aV516e7fda298dcd4e51000081
p1121
aV51603912298dcd4e5100003b
p1122
aV515870cdd24251bc0500008f
p1123
aV56eaf4e6107309bc2f000001
p1124
aV5171438a8ed59a060a000007
p1125
aV52f4f1d62059c6d71c00001c
p1126
aV56b8ccc5156496395c000003
p1127
aV533c384dc45e133714000006
p1128
aV516d5baa298dcd4e51000078
p1129
aV56ffd08bcf1c325851000009
p1130
aV5313058de3eabad02100000e
p1131
aV5348307daeec6fbd07000011
p1132
aV54da32bc0f63c58e6e000001
p1133
aV52efc041c8da89891000001b
p1134
aV53175e68b166e2b806000009
p1135
aV53353927d6d3ac6a34000043
p1136
aV52ed264a98d023950500002f
p1137
aV56f82f9acf1c325851000002
p1138
aV5159b990d24251bc050000a3
p1139
aV511a4ec01159fa8212000004
p1140
aV54d8ea2c4b1fd0d33c000002
p1141
aV52ecd56198d023950500002b
p1142
aV54e071e11388e8454a00000d
p1143
aV5506e2ff8e1671127b00000d
p1144
aV551910fa622b19434500000b
p1145
aV53189b05b166e2b80600001e
p1146
aV56bce63cd36b5da37800000b
p1147
aV51716a438ed59a060a00000a
p1148
aV514168ab23fec9037500000a
p1149
aV51542e44d24251bc05000081
p1150
aV53215fca9b2d7acc7e000005
p1151
aV530a3f8a970c65fa6b000006
p1152
aV5148e1d6d24251bc0500003a
p1153
aV515c4f05298dcd4e51000006
p1154
aV54d662113706e8952800000d
p1155
aV550739cf3b8a5dc045000002
p1156
aV56ae40110a360a5e45000009
p1157
aV5311d130e3eabad021000009
p1158
aV53177803b166e2b80600000e
p1159
aV56e0869351531f7e33000011
p1160
aV56ae70050a360a5e4500000f
p1161
aV550e7d6aa103b7801600000e
p1162
aV52f509232059c6d71c00001f
p1163
aV535d69177d100faa09000003
p1164
aV56be1723ef6e39474100000c
p1165
aV56e6f027a12c1fc13b000001
p1166
aV5162f5b6298dcd4e5100004c
p1167
aV5544df2a5beec11c10000006
p1168
aV53261e79600967d132000003
p1169
aV550e9d2cb305b40c5c000001
p1170
aV56d1accb67f0cb3d66000001
p1171
aV516c0ed3298dcd4e5100006f
p1172
aV56f961b3cf1c325851000003
p1173
aV56b9cabbac7ad10019000002
p1174
aV54f088ee94afd61504000015
p1175
aV552440452c8b63434a00000b
p1176
aV52fb19ab2059c6d71c00005c
p1177
aV56c8f7445795f9a73e00001b
p1178
aV51751ee48ed59a060a000025
p1179
aV516ec97f298dcd4e51000087
p1180
aV53372ba3d6d3ac6a34000058
p1181
aV56ed0a372ac5ed1459000006
p1182
aV56c1f02aef6e39474100004b
p1183
aV551fd9c06b348bb82c000012
p1184
aV515dbb3b298dcd4e51000018
p1185
aV54d7a1047035c08008000002
p1186
aV5324d0169b2d7acc7e000022
p1187
aV55054f8af73303d458000002
p1188
aV52e7b4a198d023950500001b
p1189
aV516e5f4e298dcd4e51000080
p1190
aV535d7c247d100faa09000006
p1191
aV54fc9ca16ad7dcbc12000006
p1192
aV54f1e781c409818c32000003
p1193
aV515d7693298dcd4e5100000c
p1194
aV56f7c15a09dd18d46b000012
p1195
aV5523e7837b523f2123000006
p1196
aV56c1f045ef6e394741000058
p1197
aV517138b68ed59a060a000002
p1198
aV56c1f030ef6e39474100004d
p1199
aV5708992ccf1c32585100000d
p1200
aV52d8494698d0239505000007
p1201
aV550ea8f1b305b40c5c000005
p1202
aV56b481348525abca1e000008
p1203
aV5133b15e5274a5fb0700000b
p1204
aV54e12c30ae9738404b000005
p1205
aV5319a708b166e2b806000024
p1206
aV5162a089298dcd4e51000043
p1207
aV550312b4e9bde6963400001c
p1208
aV56c03d1fef6e39474100001a
p1209
aV56cf3f4f3975bb303a000008
p1210
aV54d8d4d1014675820d000006
p1211
aV51492168d24251bc05000041
p1212
aV5318798bb166e2b806000014
p1213
aV54cf4bc3f693c3b16b00000d
p1214
aV5713968e1174fb175500000d
p1215
aV56c079b1ef6e394741000022
p1216
aV56d8b47a51531f7e33000004
p1217
aV5709f027cf1c32585100001f
p1218
aV5178d6be8ed59a060a000038
p1219
aV51bedaac3148fdcc22da7188
p1220
aV531dd4af267d7dd05300000d
p1221
aV54edaee3445c3b5a5f000003
p1222
aV52ece29f98d023950500002c
p1223
aV5506eca18e1671127b00000f
p1224
aV56b8ed4b156496395c000004
p1225
aV5148691bd24251bc0500002d
p1226
aV5335d4e8d6d3ac6a34000053
p1227
aV51406d6923fec90375000007
p1228
aV518ba4b5310faafe08000005
p1229
aV56c3320a50c68dd416000008
p1230
aV56b7210b76d8bf8d13000004
p1231
aV5318929fb166e2b80600001b
p1232
aV51475d5cd24251bc0500001b
p1233
aV54db7c4ac0bb8dce23000001
p1234
aV57152ebbcb4ef8864c000002
p1235
aV54e0c3e71388e8454a000013
p1236
aV54db5e24bcba1b1817000002
p1237
aV515d692c298dcd4e5100000a
p1238
aV56f8077a8b98c98849000002
p1239
aV530cf51d5610acba0c000001
p1240
aV56acd7530a360a5e45000004
p1241
aV57134d511174fb1755000002
p1242
aV5503145ee9bde69634000022
p1243
aV571e469bbb137a4b0c00000d
p1244
aV571e06447de986d80d000016
p1245
aV53175e9fb166e2b80600000a
p1246
aV55479102f35db75526000004
p1247
aV530f72fd329f5fcf1e000003
p1248
aV55391825bc4f83e828000016
p1249
aV53265dd4d6d3ac6a34000007
p1250
aV56be15ffef6e39474100000b
p1251
aV56f6d4ed09dd18d46b000010
p1252
aV55149f156a8cde6b72000013
p1253
aV530cf4fe960c95ad0c00000a
p1254
aV52f637972059c6d71c000025
p1255
aV530cf4fe960c95ad0c00000c
p1256
aV571e40a8bb137a4b0c000009
p1257
aV530cf4fe960c95ad0c00000b
p1258
aV530cf4fe960c95ad0c00000d
p1259
aV56c1f009ef6e39474100003c
p1260
aV5333f728d6d3ac6a34000041
p1261
aV52e9f99798d0239505000025
p1262
aV56c4bbfdb04e159d0e000002
p1263
aV54d63d873706e89528000006
p1264
aV54e0ace81388e8454a000010
p1265
aV553fbe9fe00431e071000001
p1266
aV56c85f675795f9a73e000013
p1267
aV56afe6d40a360a5e45000017
p1268
aV515ae990d24251bc050000ad
p1269
aV532f03e6d6d3ac6a34000022
p1270
aV52e62bae98d0239505000015
p1271
aV570908e3cf1c325851000012
p1272
aV516d5bdf298dcd4e5100007a
p1273
aV51434c74d24251bc0500000c
p1274
aV56cdf4675795f9a73e00003f
p1275
aV530e1b205937551c09000003
p1276
aV5319a7b2b166e2b806000028
p1277
aV5523e8cc7b523f2123000007
p1278
aV52b2f0d84003448f55000009
p1279
aV56c1f00cef6e39474100003e
p1280
aV54d8e319014675820d000009
p1281
aV53380000d6d3ac6a34000059
p1282
aV51490275d24251bc0500003d
p1283
aV52f348542059c6d71c00000f
p1284
aV56c331aa50c68dd416000005
p1285
aV515b30d8d24251bc050000b0
p1286
aV54edd9c994afd61504000001
p1287
aV532f49f8d6d3ac6a34000035
p1288
aV5150f401d24251bc05000075
p1289
aV56caea805795f9a73e00002c
p1290
aV51601071298dcd4e51000038
p1291
aV56c1f021ef6e394741000048
p1292
aV56c1f027ef6e394741000049
p1293
aV56bcd422d36b5da378000005
p1294
aV515993f3d24251bc050000a0
p1295
aV56c1f002ef6e394741000038
p1296
aV53357c98d6d3ac6a3400004a
p1297
aV52bf1d9e03868f1b06000010
p1298
aV5523e47f7b523f2123000004
p1299
aV5549de44f35db7552600000c
p1300
aV56c0968def6e394741000026
p1301
aV54fb5720d176fff445000002
p1302
aV514cd15ad24251bc05000067
p1303
aV55033064e9bde69634000036
p1304
aV5541297f182542114d000001
p1305
aV532f0ca1d6d3ac6a3400002f
p1306
aV56fcf1b8cf1c325851000005
p1307
aV51542eacd24251bc05000084
p1308
aV5363bad27d100faa0900000e
p1309
aV56d2adc5f22319765a000005
p1310
aV52ffb5d12059c6d71c00007c
p1311
aV5314d0e4dae131f84700000e
p1312
aV51716fd38ed59a060a00000c
p1313
aV56b0eb3b0a360a5e45000019
p1314
aV571f2e8e0fd6f91b68000001
p1315
aV54ede5c394afd61504000006
p1316
aV517545168ed59a060a00002b
p1317
aV56cafa845795f9a73e00002e
p1318
aV532b15ecd6d3ac6a34000014
p1319
aV56c830635795f9a73e00000e
p1320
aV56ae71cb0a360a5e45000010
p1321
aV5720a8da0fd6f91b68000010
p1322
aV54f5bc7d5f206a0c06000001
p1323
aV551c4ffc6b348bb82c000010
p1324
aV5710ed19a5ed216440000003
p1325
aV51588c1ad24251bc05000094
p1326
aV550300fce9bde6963400000a
p1327
aV551910c5622b194345000007
p1328
aV5502fe13e9bde69634000009
p1329
aV5717bacacb4ef8864c00000d
p1330
aV54fc27a896abe38008000002
p1331
aV54d8d60d014675820d000007
p1332
aV531375a6e3eabad021000011
p1333
aV5335c938d6d3ac6a34000052
p1334
aV56d1e23c67f0cb3d66000009
p1335
aV531af8cbb166e2b80600003a
p1336
aV56e0797451531f7e3300000f
p1337
aV5544de7a5beec11c10000005
p1338
aV531b3ff3b166e2b80600003d
p1339
aV54f4627e64850a5854000007
p1340
aV553a6a9fbc4f83e82800001c
p1341
aV55421ee7ccca0ce74b000002
p1342
aV5717e0717de986d80d000002
p1343
aV514a0a57d24251bc05000051
p1344
aV516c1041298dcd4e51000070
p1345
aV5148f6f0d24251bc0500003c
p1346
aV5314c7afdae131f84700000a
p1347
aV52f5417b2059c6d71c000024
p1348
aV56ae3cdc0a360a5e45000008
p1349
aV5717ab7ccb4ef8864c00000c
p1350
aV53262cdcd6d3ac6a34000003
p1351
aV51542de6d24251bc0500007f
p1352
aV53036faab24d855b11000001
p1353
aV5713506d1174fb1755000003
p1354
aV56c6dc6f5795f9a73e000007
p1355
aV56f5692f09dd18d46b00000a
p1356
aV530a3e18970c65fa6b000005
p1357
aV52fb7c512059c6d71c000069
p1358
aV52f65f372059c6d71c000027
p1359
aV5148b466d24251bc05000037
p1360
aV5162e44f298dcd4e5100004a
p1361
aV56c58f1b5795f9a73e000001
p1362
aV56f7fe3709dd18d46b000015
p1363
aV54db62a3034aea571d000001
p1364
aV5344155faeec6fbd07000005
p1365
aV53442472aeec6fbd07000008
p1366
aV553ca8d8f32186855800000d
p1367
aV5547d72ef35db75526000008
p1368
aV532f1452d6d3ac6a34000030
p1369
aV570a922dcf1c325851000028
p1370
aV5547ec32f35db7552600000a
p1371
aV55088e412e93f0133a000001
p1372
aV55074fa8bde8548216000003
p1373
aV515de572298dcd4e51000021
p1374
aV5149b575d24251bc05000047
p1375
aV5173eb428ed59a060a000021
p1376
aV54d762653706e89528000014
p1377
aV550ae16bc2af5d5b70000009
p1378
aV5361677c7d100faa09000008
p1379
aV52c7275103868f1b0600001c
p1380
aV5139b31dbee46bd34c000004
p1381
aV52f21b722059c6d71c00000b
p1382
aV518cb6ab310faafe08000009
p1383
aV56a8adb0a17756b72f000003
p1384
aV51bdb644047fa84d1d000001
p1385
aV55192892622b194345000012
p1386
aV56b8a222156496395c000001
p1387
aV534ab91eaeec6fbd07000012
p1388
aV56ae69fb0a360a5e4500000d
p1389
aV56cdf4875795f9a73e000040
p1390
aV550aef0ec2af5d5b7000000a
p1391
aV532dcfc9d6d3ac6a34000021
p1392
aV56af5abb0a360a5e45000012
p1393
aV51740da48ed59a060a000024
p1394
aV5543829fed966d112c000009
p1395
aV517151f28ed59a060a000008
p1396
aV56f564f909dd18d46b000009
p1397
aV531d34be267d7dd053000004
p1398
aV516d4770298dcd4e51000076
p1399
aV51766e438ed59a060a000031
p1400
aV570a8dcfcf1c325851000027
p1401
aV552435602c8b63434a000009
p1402
aV51602609298dcd4e5100003a
p1403
aV52b2f09f4003448f55000008
p1404
aV54f21b69c409818c32000007
p1405
aV550618f58e1671127b000007
p1406
aV56ccccf55795f9a73e000037
p1407
aV56cdf5195795f9a73e000045
p1408
aV51487821d24251bc0500002f
p1409
aV552446612c8b63434a00000c
p1410
aV5509ec41c2af5d5b70000006
p1411
aV51487dead24251bc05000030
p1412
aV53636e727d100faa0900000d
p1413
aV513596225274a5fb0700000d
p1414
aV52e203bc98d0239505000011
p1415
aV54d901ec4b1fd0d33c000006
p1416
aV515df86a298dcd4e5100002e
p1417
aV553f5a20ab98a37113000006
p1418
aV56be2570ef6e39474100000d
p1419
aV5322d3cb9b2d7acc7e000010
p1420
aV5321b8a39b2d7acc7e000009
p1421
aV515de748298dcd4e51000023
p1422
aV54dfbed11388e8454a000008
p1423
aV56d34fbcf22319765a000009
p1424
aV53147b52e3eabad021000015
p1425
aV56c904745795f9a73e00001c
p1426
aV514cbbf9d24251bc05000065
p1427
aV52bf1f2d03868f1b06000015
p1428
aV52bf19f703868f1b06000002
p1429
aV515db54c298dcd4e51000016
p1430
aV5149aafcd24251bc05000045
p1431
aV5503167be9bde69634000028
p1432
aV570917bccf1c325851000015
p1433
aV5519a7d5622b194345000015
p1434
aV53372b66d6d3ac6a34000057
p1435
aV56e310a151531f7e33000017
p1436
aV52fe4ad52059c6d71c000077
p1437
aV51600ab3298dcd4e51000036
p1438
aV56a292ae496b62f23f000001
p1439
aV53319653d6d3ac6a3400003e
p1440
aV56cae40b5795f9a73e000022
p1441
aV56c1f000ef6e394741000037
p1442
aV52f21e8f2059c6d71c00000c
p1443
aV56c036afef6e394741000019
p1444
aV5710eec5a5ed216440000004
p1445
aV5147c8a6d24251bc05000027
p1446
aV52f65bf02059c6d71c000026
p1447
aV553a54babc4f83e828000019
p1448
aV551ae73b6b348bb82c000001
p1449
aV515db20e298dcd4e51000014
p1450
aV530cf4fe960c95ad0c000009
p1451
aV54f60ea05f206a0c06000009
p1452
aV54f2f81664850a5854000003
p1453
aV530cf4fe960c95ad0c000003
p1454
aV530cf4fe960c95ad0c000002
p1455
aV54cf6d40f693c3b16b00000e
p1456
aV530cf4fe960c95ad0c000005
p1457
aV515bf6d6298dcd4e51000004
p1458
aV530cf4fe960c95ad0c000007
p1459
aV55425615ed966d112c000003
p1460
aV52bf1cb303868f1b0600000b
p1461
aV531616bdb166e2b806000003
p1462
aV51631154298dcd4e5100004e
p1463
aV5539029cbc4f83e828000012
p1464
aV52fb78572059c6d71c000067
p1465
aV5300aad02059c6d71c000080
p1466
aV531c380db166e2b80600003f
p1467
aV56c1f031ef6e39474100004e
p1468
aV55181d1e6487737b43000008
p1469
aV553e1aa5a3cf796f71000003
p1470
aV56c08702ef6e394741000024
p1471
aV535917f3c95abccd6f000001
p1472
aV57135fae1174fb1755000004
p1473
aV56c1f034ef6e394741000050
p1474
aV54cf45e7f693c3b16b00000a
p1475
aV51680b0e298dcd4e51000065
p1476
aV571f5d3e0fd6f91b6800000a
p1477
aV56cab4c75795f9a73e00001f
p1478
aV52fc94db2059c6d71c000074
p1479
aV56cf2a153975bb303a000004
p1480
aV5544e4635beec11c10000007
p1481
aV516e5f25298dcd4e5100007d
p1482
aV56af573b0a360a5e45000011
p1483
aV52fc8b772059c6d71c00006e
p1484
aV54ede95c94afd6150400000a
p1485
aV553ccbaef32186855800000f
p1486
aV56c0ea0aef6e394741000029
p1487
aV56a38f9b496b62f23f000004
p1488
aV5324d0429b2d7acc7e000023
p1489
aV56f7d9dd09dd18d46b000014
p1490
aV52f896d62059c6d71c000046
p1491
aV56be14c7ef6e39474100000a
p1492
aV536172d17d100faa09000009
p1493
aV553fca6054168f6c79000002
p1494
aV52ee065d98d0239505000033
p1495
aV56ebfac12ac5ed1459000001
p1496
aV54fc58df6ea36a810c000004
p1497
aV516d4b27298dcd4e51000077
p1498
aV56bf4035ef6e394741000010
p1499
aV52fc94932059c6d71c000072
p1500
aV5314d05adae131f84700000d
p1501
aV56c04412ef6e39474100001b
p1502
aV52f899952059c6d71c00004b
p1503
aV53161545b166e2b806000002
p1504
aV56ae6e650a360a5e4500000e
p1505
aV55032785e9bde69634000031
p1506
aV56d094f33975bb303a000012
p1507
aV550e866271445a662f000005
p1508
aV533ada5efd9a95ea0d000001
p1509
aV5314bd7ddae131f847000006
p1510
aV513f4892bee46bd34c000014
p1511
aV54d8f37b4b1fd0d33c000004
p1512
aV5512c91b6a8cde6b7200000b
p1513
aV511a1e12df1ebcce7d000009
p1514
aV54f48cb74e9bf3263f000001
p1515
aV56acc7ca0a360a5e45000002
p1516
aV515ffc2b298dcd4e51000035
p1517
aV5321badd9b2d7acc7e00000a
p1518
aV52e8e9d298d0239505000022
p1519
aV55180ef46487737b43000006
p1520
aV52fa74052059c6d71c00005a
p1521
aV5540eda30083d1bf0e000006
p1522
aV550311dae9bde69634000018
p1523
aV51716e808ed59a060a00000b
p1524
aV56c5a7605795f9a73e000002
p1525
aV55030a6ce9bde6963400000f
p1526
aV532f043ed6d3ac6a34000023
p1527
aV56cdf3745795f9a73e000039
p1528
aV5545d847bf90a13052000006
p1529
aV554101d0234c5a7c75000002
p1530
aV5508685b4b2a315d4100000a
p1531
aV515df89e298dcd4e5100002f
p1532
aV53592c1e9a4572de6f000002
p1533
aV532627d0d6d3ac6a34000001
p1534
aV51680b05298dcd4e51000064
p1535
aV56f553e309dd18d46b000006
p1536
aV56d1d56b67f0cb3d66000004
p1537
aV553fac39c6a5098552000001
p1538
aV532bf6f2d6d3ac6a34000015
p1539
aV51be03c4047fa84d1d000004
p1540
aV54fc845e6ea36a810c000005
p1541
aV5541ffc3472cfd8617000004
p1542
aV56cf4b623975bb303a00000a
p1543
aV55450521bf90a13052000001
p1544
aV514cc8dcd24251bc05000066
p1545
aV51430930d24251bc0500000b
p1546
aV533c390bc45e13371400000b
p1547
aV531a3a58b166e2b806000037
p1548
aV5161cfa3298dcd4e5100003d
p1549
aV5156beb4d24251bc05000089
p1550
aV5339edd6d6d3ac6a34000061
p1551
aV5156be17d24251bc05000086
p1552
aV54cf449cf693c3b16b000009
p1553
aV516e5f10298dcd4e5100007c
p1554
aV533e50fdc45e13371400000f
p1555
aV54f0985994afd6150400001a
p1556
aV5540b9800083d1bf0e000002
p1557
aV5321ae889b2d7acc7e000006
p1558
aV516545a8298dcd4e51000056
p1559
aV52bf1d6003868f1b0600000e
p1560
aV513cdc38bee46bd34c000007
p1561
aV514c3fd7d24251bc05000062
p1562
aV56c1f01cef6e394741000044
p1563
aV56b1f4300a360a5e4500001b
p1564
aV56af7b820a360a5e45000014
p1565
aV5167d47e298dcd4e5100005e
p1566
aV56c313d150c68dd416000002
p1567
aV54d76ac63706e89528000016
p1568
aV5709f646cf1c325851000021
p1569
aV515c4f1f298dcd4e51000007
p1570
aV52ffbddf2059c6d71c00007d
p1571
aV54297ed2289fd6cb07000001
p1572
aV5325fdf0600967d132000001
p1573
aV5357b36cf1005d6b58000006
p1574
aV54f49e56d0d681a040000004
p1575
aV52f88d292059c6d71c000036
p1576
aV5509ba931180f13250000001
p1577
aV553f96191d53b76422000004
p1578
aV517a8a718ed59a060a00003e
p1579
aV530f900ee3eabad021000003
p1580
aV56c1f00aef6e39474100003d
p1581
aV54e8c7220fc566b149000002
p1582
aV5325a1a69b2d7acc7e000025
p1583
aV56bc932aac7ad1001900001c
p1584
aV56cae51f5795f9a73e000025
p1585
aV571e3e2abb137a4b0c000008
p1586
aV54f1e4d0c409818c32000002
p1587
aV56bf5b0cef6e394741000014
p1588
aV517194ef8ed59a060a000011
p1589
aV53551206a0726bee57000001
p1590
aV56c3104c50c68dd416000001
p1591
aV531b4269b166e2b80600003e
p1592
aV54edf05494afd6150400000e
p1593
aV553fb11fc6a5098552000003
p1594
aV56ffdc1ccf1c32585100000b
p1595
aV5319abc9b166e2b80600002d
p1596
aV54de15f91388e8454a000002
p1597
aV56d8ba1851531f7e33000005
p1598
aV5172e9448ed59a060a000018
p1599
aV56c863385795f9a73e000015
p1600
aV530b4f49970c65fa6b00000a
p1601
aV5306158358348c0f52000001
p1602
aV56cae3eb5795f9a73e000021
p1603
aV51682c52298dcd4e51000067
p1604
aV5149af96d24251bc05000046
p1605
aV53175e25b166e2b806000007
p1606
aV56c07ef5ef6e394741000023
p1607
aV5509bd6a1180f13250000002
p1608
aV530c7fa4970c65fa6b000012
p1609
aV54e0d7471388e8454a000015
p1610
aV54f9c40ddd3fc62544000001
p1611
aV515debe7298dcd4e51000026
p1612
aV56f6ab7009dd18d46b00000d
p1613
aV56e5aeec0c19e5451d000002
p1614
aV532ff917d6d3ac6a34000038
p1615
aV569e7721ceceede94d000001
p1616
aV53302bced6d3ac6a34000039
p1617
aV52f89a002059c6d71c00004c
p1618
aV56e460d051531f7e33000019
p1619
aV56c1d846ef6e39474100002e
p1620
aV5156be04d24251bc05000085
p1621
aV56c02883ef6e394741000017
p1622
aV56a24dfffe92d6fd19000002
p1623
aV56c1f033ef6e39474100004f
p1624
aV533eb89fc45e133714000012
p1625
aV514a11add24251bc05000054
p1626
aV5165932e298dcd4e51000059
p1627
aV54cf42bdf693c3b16b000007
p1628
aV5131bef65274a5fb07000008
p1629
aV530f7d7fe3eabad021000002
p1630
aV5139ec51bee46bd34c000006
p1631
aV54edef0594afd6150400000d
p1632
aV5324ce779b2d7acc7e00001e
p1633
aV5544da8f5beec11c10000004
p1634
aV56b773a96e3f8eaf4c000003
p1635
aV52b2ed144003448f55000004
p1636
aV56ebee26107309bc2f000002
p1637
aV5516757c46478f2f2c000008
p1638
aV5160412d298dcd4e5100003c
p1639
aV5322de919b2d7acc7e000012
p1640
aV56c3184050c68dd416000003
p1641
aV54df6ed91388e8454a000007
p1642
aV54e22b62ae9738404b000011
p1643
aV551adceb622b194345000018
p1644
aV52b06a68f828ad283c000005
p1645
aV56c1f03cef6e394741000054
p1646
aV534bf050aeec6fbd07000015
p1647
aV52f7c91f2059c6d71c00002e
p1648
aV55421398ccca0ce74b000001
p1649
aV530c7cfd970c65fa6b00000c
p1650
aV532f0b2cd6d3ac6a3400002c
p1651
aV54d7b457e19bba8909000004
p1652
aV54dfce9b1388e8454a00000b
p1653
aV5512c1ee6a8cde6b72000009
p1654
aV5709f212cf1c325851000020
p1655
aV553ba7b7f321868558000006
p1656
aV515db70c298dcd4e51000017
p1657
aV532f05a5d6d3ac6a34000025
p1658
aV553c8fd1f32186855800000a
p1659
aV56c1f01eef6e394741000046
p1660
aV57092f9bcf1c32585100001b
p1661
aV54fb5c69d176fff445000003
p1662
aV530cf4c54a5037880c000008
p1663
aV5151b8efd24251bc0500007a
p1664
aV553d0005f321868558000011
p1665
aV553a761cf321868558000001
p1666
aV530cf4c54a5037880c000002
p1667
aV54edf1ee94afd6150400000f
p1668
aV571f356f0fd6f91b68000006
p1669
aV56bce51cd36b5da37800000a
p1670
aV51682382298dcd4e51000066
p1671
aV54f2210164850a5854000001
p1672
aV5324d12b9b2d7acc7e000024
p1673
aV5357b9bcf1005d6b58000008
p1674
aV54f482d264850a5854000009
p1675
aV5542644fed966d112c000004
p1676
aV5319a83bb166e2b80600002c
p1677
aV531481ade3eabad021000016
p1678
aV52ed27c098d0239505000030
p1679
aV55242d512c8b63434a000006
p1680
aV550316a6e9bde69634000029
p1681
aV513f45abbee46bd34c000013
p1682
aV56ddbbaf51531f7e33000009
p1683
aV54e0ba781388e8454a000011
p1684
aV517843638ed59a060a000036
p1685
aV55031286e9bde6963400001b
p1686
aV5335f053d6d3ac6a34000055
p1687
aV533ec7abc45e133714000015
p1688
aV54ecb640445c3b5a5f000001
p1689
aV56f6c11109dd18d46b00000e
p1690
aV52d2b75403868f1b06000035
p1691
aV513f3d1fbee46bd34c000010
p1692
aV533581f5d6d3ac6a3400004d
p1693
aV536e46f27d100faa09000012
p1694
aV553f7a71ab98a37113000009
p1695
aV531e2695267d7dd05300000f
p1696
aV5502abd1e9bde69634000008
p1697
aV515df199298dcd4e5100002a
p1698
aV53148a07dae131f847000002
p1699
aV52eea4dcc8da89891000000c
p1700
aV53355befd6d3ac6a34000046
p1701
aV52f89f4f2059c6d71c00004e
p1702
aV56c85ed65795f9a73e000012
p1703
aV53314c98d6d3ac6a3400003b
p1704
aV531d3dc0267d7dd053000005
p1705
aV51542e84d24251bc05000083
p1706
aV52f118aa2059c6d71c000003
p1707
aV551af9106b348bb82c000002
p1708
aV55413142182542114d000002
p1709
aV5156be5ed24251bc05000087
p1710
aV533c38b3c45e133714000009
p1711
aV516c220e298dcd4e51000071
p1712
aV550712739d0faaa527000008
p1713
aV51542e6fd24251bc05000082
p1714
aV54edeb4394afd6150400000b
p1715
aV5522fadb7b523f2123000001
p1716
aV52f1287d2059c6d71c000008
p1717
aV54f4c382d0d681a040000006
p1718
aV53442023aeec6fbd07000007
p1719
aV511a20f3df1ebcce7d00000c
p1720
aV534427f8aeec6fbd07000009
p1721
aV550889db098a1b487b000005
p1722
aV551c2c276b348bb82c00000c
p1723
aV554500065beec11c1000000b
p1724
aV56e6f419a12c1fc13b000002
p1725
aV533abc76d6d3ac6a34000064
p1726
aV518cca6f310faafe0800000a
p1727
aV51be1750047fa84d1d000005
p1728
aV5717cdd2070aa3d072000001
p1729
aV56d03a4d3975bb303a00000c
p1730
aV571f5c150fd6f91b68000009
p1731
aV51387022bee46bd34c000002
p1732
aV5178444e8ed59a060a000037
p1733
aV56d1fd67f22319765a000002
p1734
aV56df03c751531f7e3300000a
p1735
aV5539062dbc4f83e828000013
p1736
aV54f616cd5f206a0c0600000c
p1737
aV517775c78ed59a060a000033
p1738
aV56c5ade15795f9a73e000003
p1739
aV533be71dfd9a95ea0d000009
p1740
aV56f157a52ac5ed1459000011
p1741
aV56c8274f5795f9a73e00000d
p1742
aV52b2efcb4003448f55000005
p1743
aV53455e0caeec6fbd0700000f
p1744
aV56caf71b5795f9a73e00002d
p1745
aV56cafca85795f9a73e000030
p1746
aV54e0dfa91388e8454a000018
p1747
aV5545e65bd355485447000001
p1748
aV517139098ed59a060a000004
p1749
aV56f3faed09dd18d46b000002
p1750
aV517539e68ed59a060a000028
p1751
aV531464a6e3eabad021000014
p1752
aV532bfd15d6d3ac6a34000017
p1753
aV53124bdae3eabad02100000b
p1754
aV56c30ce99d3e5f1412000002
p1755
aV54fc91e96ad7dcbc12000001
p1756
aV532ad531d6d3ac6a34000013
p1757
aV57092635cf1c325851000019
p1758
aV52e929eb98d0239505000023
p1759
aV53318685d6d3ac6a3400003d
p1760
aV571696d9cb4ef8864c000009
p1761
aV518cb5ab310faafe08000008
p1762
aV570a6d03cf1c325851000025
p1763
aV56cd765b5795f9a73e000038
p1764
aV5326300fd6d3ac6a34000005
p1765
aV51be411b047fa84d1d000006
p1766
aV511a3573df1ebcce7d000018
p1767
aV514a0f0ad24251bc05000052
p1768
aV56c5c7915795f9a73e000004
p1769
aV56be143eef6e394741000009
p1770
aV52e7870a98d023950500001a
p1771
aV5149e23dd24251bc0500004b
p1772
aV54db7217c4c6ce8e1d000003
p1773
aV56c865d25795f9a73e000016
p1774
aV550e828c71445a662f000002
p1775
aV5506a7a48e1671127b000008
p1776
aV5133b9455274a5fb0700000c
p1777
aV5715c16dcb4ef8864c000004
p1778
aV5509ce9ec2af5d5b70000001
p1779
aV56d12d643975bb303a000014
p1780
aV54f608f85f206a0c06000007
p1781
aV56c048acef6e39474100001c
p1782
aV515da5b5298dcd4e5100000f
p1783
aV550748a3bde8548216000001
p1784
aV532c12f2d6d3ac6a3400001d
p1785
aV5319a73cb166e2b806000026
p1786
aV512d0e635274a5fb07000005
p1787
aV52f892782059c6d71c000039
p1788
aV5318352fb166e2b806000011
p1789
aV532c0ac4d6d3ac6a3400001a
p1790
aV53340ca4d6d3ac6a34000042
p1791
aV52d8466298d0239505000006
p1792
aV54d776453706e89528000018
p1793
aV534289851eccfd0633000001
p1794
aV56ffd805cf1c32585100000a
p1795
aV531d1279b166e2b806000042
p1796
aV533ba85ffd9a95ea0d000008
p1797
aV52f124a12059c6d71c000006
p1798
aV52e7b7cb98d023950500001c
p1799
a.