(lp0
(lp1
I1
aI15
aI2
aI12
aI9
aI3
aI11
aI6
aI4
aI0
aI8
aI14
aI5
aI13
aI7
aI10
aa(lp2
I7
aI14
aI12
aI3
aI1
aI0
aI4
aI11
aI13
aI6
aI5
aI9
aI10
aI2
aI8
aa(lp3
I1
aI5
aI3
aI7
aI6
aI2
aI4
aI0
aa(lp4
I4
aI1
aI0
aI3
aI2
aI5
aa(lp5
I7
aI10
aI1
aI0
aI3
aI6
aI2
aI8
aI5
aI4
aI9
aa(lp6
I0
aI21
aI9
aI10
aI11
aI7
aI14
aI5
aI19
aI4
aI2
aI18
aI6
aI16
aI15
aI12
aI17
aI3
aI8
aI13
aI1
aI20
aa(lp7
I5
aI7
aI6
aI9
aI8
aI0
aI1
aI10
aI4
aI2
aI3
aa(lp8
I0
aI3
aI9
aI1
aI13
aI17
aI2
aI10
aI12
aI15
aI8
aI18
aI6
aI14
aI5
aI11
aI20
aI19
aI4
aI16
aI21
aI7
aa(lp9
I0
aI3
aI1
aI5
aI7
aI6
aI4
aI2
aa(lp10
I5
aI20
aI19
aI10
aI0
aI8
aI4
aI6
aI16
aI2
aI1
aI12
aI14
aI3
aI7
aI13
aI18
aI17
aI15
aI11
aI9
aa(lp11
I12
aI9
aI16
aI0
aI13
aI7
aI15
aI2
aI10
aI4
aI6
aI8
aI11
aI5
aI14
aI1
aI3
aa(lp12
I4
aI2
aI6
aI0
aI5
aI3
aI8
aI7
aI1
aa(lp13
I0
aI3
aI2
aI1
aa(lp14
I24
aI19
aI21
aI16
aI5
aI15
aI14
aI17
aI6
aI18
aI22
aI12
aI11
aI7
aI23
aI20
aI9
aI8
aI4
aI0
aI2
aI13
aI3
aI1
aI10
aa(lp15
I27
aI4
aI0
aI40
aI22
aI19
aI12
aI9
aI1
aI26
aI31
aI39
aI14
aI3
aI47
aI43
aI25
aI20
aI36
aI38
aI10
aI13
aI34
aI28
aI15
aI44
aI37
aI35
aI41
aI5
aI24
aI17
aI23
aI11
aI18
aI21
aI46
aI29
aI7
aI6
aI2
aI48
aI30
aI42
aI32
aI8
aI33
aI45
aI16
aa(lp16
I19
aI20
aI18
aI16
aI17
aI0
aI8
aI12
aI9
aI14
aI7
aI4
aI2
aI13
aI11
aI10
aI5
aI3
aI6
aI1
aI15
aa(lp17
I1
aI6
aI13
aI5
aI2
aI8
aI12
aI11
aI7
aI15
aI14
aI3
aI0
aI10
aI9
aI4
aa(lp18
I6
aI5
aI11
aI10
aI2
aI4
aI0
aI9
aI8
aI1
aI7
aI3
aa(lp19
I0
aI1
aI2
aI3
aI4
aa(lp20
I4
aI13
aI5
aI7
aI2
aI8
aI12
aI10
aI3
aI0
aI9
aI1
aI6
aI11
aa(lp21
I8
aI2
aI5
aI6
aI10
aI0
aI14
aI1
aI15
aI12
aI11
aI9
aI7
aI3
aI13
aI4
aa(lp22
I16
aI0
aI14
aI12
aI9
aI15
aI4
aI5
aI2
aI1
aI6
aI13
aI8
aI10
aI3
aI11
aI7
aa(lp23
I1
aI6
aI5
aI7
aI8
aI2
aI10
aI9
aI4
aI3
aI0
aa(lp24
I2
aI5
aI3
aI1
aI4
aI0
aI6
aa(lp25
I18
aI9
aI8
aI10
aI17
aI13
aI5
aI16
aI15
aI6
aI4
aI0
aI7
aI14
aI3
aI1
aI2
aI12
aI11
aa(lp26
I5
aI4
aI3
aI0
aI2
aI1
aa(lp27
I9
aI4
aI3
aI5
aI2
aI1
aI0
aI8
aI7
aI6
aa(lp28
I8
aI1
aI5
aI10
aI2
aI7
aI9
aI11
aI0
aI4
aI6
aI3
aa(lp29
I11
aI2
aI9
aI13
aI12
aI7
aI8
aI10
aI3
aI6
aI5
aI1
aI0
aI4
aa(lp30
I0
aI4
aI8
aI3
aI5
aI2
aI6
aI7
aI9
aI1
aa(lp31
I20
aI18
aI13
aI10
aI7
aI16
aI0
aI19
aI14
aI8
aI9
aI15
aI1
aI6
aI11
aI3
aI17
aI12
aI5
aI4
aI2
aa(lp32
I4
aI5
aI2
aI6
aI3
aI7
aI1
aI0
aa(lp33
I4
aI1
aI3
aI17
aI18
aI14
aI13
aI11
aI10
aI9
aI8
aI5
aI16
aI12
aI6
aI0
aI15
aI7
aI2
aa(lp34
I7
aI9
aI11
aI4
aI13
aI10
aI8
aI14
aI12
aI6
aI0
aI3
aI5
aI2
aI1
aa(lp35
I0
aI27
aI20
aI3
aI16
aI6
aI18
aI8
aI4
aI23
aI11
aI13
aI21
aI7
aI24
aI14
aI22
aI12
aI28
aI15
aI9
aI10
aI5
aI17
aI26
aI19
aI25
aI1
aI2
aa(lp36
I27
aI20
aI0
aI21
aI12
aI7
aI3
aI15
aI14
aI18
aI17
aI6
aI1
aI2
aI16
aI9
aI11
aI22
aI23
aI19
aI8
aI26
aI25
aI24
aI13
aI10
aI5
aI4
aa(lp37
I16
aI15
aI14
aI13
aI12
aI11
aI10
aI9
aI8
aI7
aI6
aI5
aI4
aI3
aI2
aI1
aI0
aa(lp38
I1
aI0
aI2
aI5
aI4
aI3
aI6
aI7
aa(lp39
I1
aI0
aI3
aI2
aI4
aa(lp40
I1
aI0
aI3
aI2
aa(lp41
I13
aI14
aI24
aI23
aI3
aI12
aI11
aI8
aI20
aI4
aI22
aI5
aI10
aI16
aI1
aI6
aI9
aI15
aI19
aI7
aI0
aI17
aI2
aI21
aI18
aa(lp42
I5
aI6
aI10
aI8
aI0
aI1
aI9
aI3
aI7
aI2
aI4
aa(lp43
I6
aI7
aI4
aI10
aI2
aI9
aI5
aI8
aI0
aI1
aI3
aa(lp44
I23
aI0
aI21
aI25
aI26
aI18
aI11
aI15
aI22
aI20
aI6
aI3
aI9
aI5
aI28
aI1
aI16
aI17
aI27
aI24
aI8
aI2
aI4
aI13
aI14
aI12
aI19
aI7
aI10
aa(lp45
I4
aI3
aI6
aI5
aI2
aI1
aI0
aa(lp46
I0
aI1
aI13
aI2
aI10
aI6
aI11
aI8
aI7
aI14
aI5
aI16
aI9
aI4
aI18
aI3
aI17
aI12
aI15
aa(lp47
I26
aI5
aI29
aI10
aI1
aI2
aI23
aI8
aI24
aI28
aI13
aI19
aI7
aI11
aI4
aI30
aI22
aI6
aI9
aI21
aI0
aI25
aI15
aI3
aI18
aI14
aI12
aI20
aI17
aI16
aI27
aa(lp48
I4
aI20
aI5
aI22
aI18
aI8
aI21
aI7
aI15
aI12
aI13
aI14
aI17
aI10
aI0
aI16
aI9
aI3
aI1
aI11
aI2
aI6
aI19
aa(lp49
I0
aI5
aI2
aI1
aI6
aI4
aI3
aa(lp50
I7
aI5
aI17
aI10
aI3
aI0
aI4
aI14
aI1
aI2
aI16
aI13
aI6
aI15
aI9
aI18
aI11
aI8
aI12
aa(lp51
I11
aI21
aI8
aI7
aI2
aI20
aI16
aI9
aI18
aI13
aI12
aI17
aI19
aI14
aI6
aI4
aI15
aI10
aI5
aI0
aI3
aI1
aa(lp52
I4
aI5
aI8
aI0
aI2
aI7
aI3
aI10
aI9
aI1
aI6
aa(lp53
I0
aI2
aI3
aI4
aI15
aI12
aI10
aI7
aI9
aI14
aI1
aI5
aI13
aI11
aI6
aI8
aa(lp54
I14
aI6
aI28
aI13
aI32
aI19
aI10
aI16
aI33
aI18
aI2
aI30
aI3
aI21
aI29
aI0
aI26
aI25
aI23
aI17
aI5
aI22
aI9
aI31
aI24
aI12
aI1
aI20
aI15
aI27
aI11
aI4
aI8
aI7
aa(lp55
I11
aI8
aI10
aI13
aI6
aI12
aI1
aI9
aI7
aI0
aI15
aI5
aI4
aI2
aI14
aI3
aI16
aa(lp56
I1
aI0
aI4
aI11
aI3
aI8
aI7
aI2
aI15
aI14
aI12
aI9
aI6
aI10
aI13
aI5
aa(lp57
I1
aI13
aI0
aI3
aI4
aI5
aI2
aI9
aI10
aI6
aI12
aI8
aI11
aI7
aI14
aa(lp58
I13
aI11
aI0
aI24
aI7
aI14
aI9
aI21
aI19
aI6
aI8
aI22
aI20
aI15
aI17
aI16
aI2
aI4
aI25
aI23
aI12
aI10
aI5
aI3
aI18
aI1
aa(lp59
I0
aI4
aI3
aI2
aI1
aa(lp60
I13
aI12
aI14
aI23
aI15
aI9
aI19
aI46
aI0
aI1
aI43
aI44
aI37
aI26
aI11
aI39
aI16
aI45
aI20
aI30
aI18
aI21
aI41
aI5
aI7
aI6
aI27
aI42
aI29
aI36
aI3
aI31
aI22
aI33
aI38
aI32
aI8
aI35
aI40
aI4
aI17
aI28
aI24
aI34
aI10
aI25
aI2
aa(lp61
I23
aI30
aI25
aI3
aI33
aI6
aI15
aI7
aI10
aI2
aI8
aI12
aI9
aI35
aI14
aI28
aI4
aI31
aI34
aI13
aI19
aI5
aI20
aI24
aI21
aI27
aI26
aI18
aI1
aI11
aI16
aI29
aI0
aI17
aI22
aI32
aa(lp62
I0
aI1
aI2
aa(lp63
I34
aI29
aI6
aI30
aI37
aI24
aI16
aI7
aI32
aI0
aI41
aI27
aI21
aI9
aI31
aI33
aI2
aI20
aI18
aI35
aI23
aI13
aI40
aI26
aI25
aI22
aI17
aI15
aI12
aI11
aI39
aI38
aI36
aI28
aI19
aI10
aI5
aI1
aI8
aI3
aI4
aI14
aa(lp64
I1
aI4
aI3
aI0
aI2
aa(lp65
I5
aI1
aI3
aI2
aI6
aI0
aI4
aa(lp66
I0
aI1
aI2
aa(lp67
I5
aI4
aI3
aI2
aI1
aI0
aa(lp68
I1
aI18
aI3
aI9
aI11
aI16
aI5
aI6
aI2
aI14
aI12
aI7
aI10
aI17
aI8
aI0
aI19
aI4
aI15
aI13
aa(lp69
I11
aI14
aI7
aI2
aI5
aI13
aI10
aI8
aI4
aI6
aI0
aI1
aI3
aI12
aI9
aa(lp70
I21
aI17
aI20
aI10
aI25
aI16
aI7
aI5
aI29
aI15
aI12
aI11
aI27
aI2
aI13
aI18
aI22
aI0
aI9
aI28
aI26
aI8
aI6
aI4
aI1
aI23
aI14
aI19
aI3
aI24
aa(lp71
I5
aI10
aI13
aI12
aI14
aI21
aI20
aI0
aI1
aI8
aI19
aI3
aI22
aI18
aI16
aI4
aI17
aI9
aI15
aI7
aI6
aI2
aI11
aa(lp72
I1
aI0
aa(lp73
I31
aI28
aI30
aI19
aI27
aI24
aI3
aI29
aI16
aI9
aI22
aI25
aI26
aI7
aI5
aI10
aI23
aI11
aI18
aI15
aI8
aI0
aI17
aI14
aI12
aI6
aI4
aI1
aI21
aI20
aI13
aI2
aa(lp74
I0
aI6
aI1
aI9
aI8
aI7
aI5
aI3
aI2
aI4
aa(lp75
I2
aI5
aI0
aI1
aI3
aI6
aI8
aI9
aI7
aI4
aa(lp76
I10
aI4
aI2
aI6
aI12
aI11
aI9
aI8
aI7
aI5
aI3
aI1
aI0
aa(lp77
I1
aI0
aa(lp78
I5
aI3
aI2
aI1
aI0
aI4
aa(lp79
I7
aI0
aI9
aI12
aI11
aI4
aI13
aI10
aI5
aI1
aI14
aI8
aI6
aI2
aI3
aa(lp80
I5
aI1
aI4
aI9
aI8
aI7
aI3
aI2
aI6
aI0
aa(lp81
I0
aI1
aI22
aI2
aI21
aI9
aI17
aI5
aI19
aI6
aI16
aI18
aI4
aI12
aI14
aI3
aI20
aI11
aI10
aI8
aI7
aI13
aI15
aa(lp82
I4
aI16
aI6
aI13
aI15
aI1
aI11
aI14
aI8
aI3
aI2
aI5
aI9
aI7
aI12
aI0
aI10
aa(lp83
I9
aI1
aI14
aI11
aI0
aI5
aI4
aI12
aI10
aI13
aI17
aI16
aI7
aI6
aI3
aI8
aI15
aI2
aa(lp84
I3
aI27
aI17
aI7
aI21
aI33
aI16
aI5
aI30
aI24
aI13
aI0
aI20
aI35
aI19
aI11
aI34
aI26
aI36
aI22
aI14
aI29
aI23
aI12
aI28
aI15
aI9
aI25
aI31
aI6
aI32
aI18
aI1
aI10
aI2
aI8
aI4
aa(lp85
I25
aI6
aI24
aI35
aI39
aI31
aI11
aI22
aI21
aI12
aI16
aI29
aI34
aI36
aI40
aI14
aI41
aI4
aI3
aI23
aI32
aI28
aI30
aI19
aI42
aI38
aI33
aI7
aI27
aI0
aI17
aI9
aI1
aI2
aI13
aI37
aI10
aI20
aI5
aI15
aI26
aI8
aI18
aa(lp86
I0
aa(lp87
I14
aI15
aI6
aI21
aI2
aI18
aI12
aI5
aI7
aI0
aI24
aI25
aI22
aI10
aI8
aI4
aI1
aI23
aI20
aI17
aI13
aI11
aI9
aI3
aI19
aI16
aa(lp88
I9
aI1
aI0
aI3
aI4
aI5
aI8
aI6
aI2
aI7
aa(lp89
I3
aI11
aI8
aI6
aI4
aI9
aI13
aI0
aI2
aI7
aI1
aI15
aI18
aI19
aI10
aI12
aI5
aI14
aI17
aI16
aa(lp90
I7
aI3
aI4
aI5
aI19
aI12
aI1
aI13
aI21
aI20
aI15
aI14
aI8
aI9
aI11
aI6
aI18
aI17
aI2
aI16
aI0
aI10
aa(lp91
I1
aI2
aI3
aI7
aI5
aI12
aI8
aI6
aI4
aI11
aI10
aI9
aI0
aa(lp92
I2
aI15
aI1
aI0
aI13
aI8
aI4
aI12
aI7
aI11
aI9
aI3
aI6
aI14
aI5
aI10
aa(lp93
I42
aI4
aI13
aI11
aI1
aI28
aI0
aI27
aI6
aI20
aI19
aI41
aI8
aI30
aI18
aI43
aI21
aI10
aI44
aI29
aI5
aI3
aI36
aI12
aI7
aI34
aI25
aI40
aI17
aI16
aI24
aI2
aI45
aI33
aI32
aI38
aI22
aI39
aI31
aI35
aI14
aI37
aI15
aI23
aI26
aI9
aa(lp94
I0
aI7
aI2
aI15
aI14
aI13
aI9
aI18
aI16
aI3
aI6
aI1
aI5
aI17
aI11
aI12
aI10
aI8
aI4
aa(lp95
I5
aI7
aI0
aI3
aI1
aI8
aI10
aI6
aI4
aI9
aI2
aa(lp96
I14
aI13
aI0
aI3
aI2
aI7
aI9
aI4
aI1
aI8
aI12
aI5
aI6
aI10
aI11
aa(lp97
I2
aI15
aI11
aI10
aI9
aI13
aI1
aI14
aI16
aI4
aI7
aI5
aI12
aI3
aI8
aI6
aI0
aa(lp98
I4
aI10
aI1
aI6
aI3
aI11
aI9
aI0
aI7
aI5
aI8
aI2
aa(lp99
I22
aI4
aI12
aI11
aI1
aI16
aI2
aI20
aI6
aI21
aI7
aI10
aI8
aI18
aI0
aI3
aI5
aI17
aI9
aI19
aI15
aI14
aI13
aa(lp100
I2
aI5
aI4
aI7
aI3
aI6
aI1
aI0
aI8
aa(lp101
I26
aI28
aI1
aI27
aI7
aI20
aI21
aI2
aI11
aI8
aI4
aI18
aI24
aI12
aI23
aI10
aI3
aI13
aI29
aI17
aI5
aI25
aI16
aI9
aI6
aI22
aI19
aI0
aI15
aI14
aa(lp102
I3
aI7
aI6
aI5
aI4
aI8
aI2
aI1
aI0
aa(lp103
I3
aI10
aI1
aI5
aI0
aI6
aI9
aI2
aI7
aI4
aI8
aa(lp104
I1
aI2
aI0
aa(lp105
I0
aI1
aa(lp106
I29
aI9
aI12
aI7
aI6
aI24
aI21
aI31
aI18
aI8
aI15
aI2
aI10
aI13
aI27
aI22
aI16
aI4
aI3
aI30
aI20
aI26
aI17
aI11
aI14
aI28
aI19
aI5
aI25
aI32
aI23
aI1
aI0
aa(lp107
I2
aI8
aI1
aI4
aI0
aI5
aI7
aI9
aI6
aI3
aa(lp108
I0
aI5
aI7
aI1
aI2
aI9
aI4
aI8
aI3
aI6
aa(lp109
I0
aI4
aI5
aI3
aI8
aI7
aI13
aI6
aI2
aI1
aI9
aI12
aI11
aI10
aa(lp110
I1
aI5
aI0
aI2
aI3
aI8
aI9
aI6
aI7
aI4
aa(lp111
I1
aI3
aI2
aI13
aI16
aI6
aI14
aI0
aI9
aI12
aI4
aI5
aI15
aI7
aI11
aI8
aI10
aa(lp112
I2
aI14
aI3
aI17
aI12
aI4
aI7
aI5
aI6
aI15
aI13
aI10
aI18
aI16
aI8
aI9
aI1
aI11
aI0
aa(lp113
I24
aI22
aI25
aI33
aI26
aI27
aI0
aI10
aI39
aI16
aI1
aI3
aI44
aI23
aI11
aI37
aI18
aI28
aI7
aI2
aI14
aI38
aI43
aI42
aI15
aI20
aI4
aI13
aI41
aI17
aI36
aI40
aI12
aI35
aI30
aI34
aI31
aI29
aI5
aI8
aI21
aI6
aI9
aI19
aI32
aa(lp114
I13
aI5
aI7
aI14
aI15
aI9
aI18
aI3
aI16
aI1
aI6
aI8
aI2
aI11
aI0
aI10
aI17
aI4
aI12
aa(lp115
I0
aI1
aa(lp116
I1
aI3
aI0
aI2
aa(lp117
I0
aI11
aI2
aI13
aI5
aI12
aI1
aI3
aI9
aI16
aI10
aI4
aI8
aI17
aI14
aI7
aI6
aI18
aI15
aa(lp118
I3
aI0
aI1
aI5
aI4
aI2
aa(lp119
I6
aI2
aI4
aI0
aI5
aI3
aI8
aI1
aI7
aa(lp120
I3
aI2
aI1
aI0
aa(lp121
I4
aI2
aI15
aI14
aI18
aI6
aI3
aI10
aI19
aI8
aI0
aI24
aI23
aI1
aI26
aI7
aI11
aI12
aI20
aI21
aI17
aI25
aI16
aI22
aI13
aI27
aI9
aI5
aa(lp122
I1
aI4
aI8
aI6
aI5
aI7
aI3
aI0
aI2
aa(lp123
I7
aI3
aI13
aI14
aI4
aI0
aI10
aI11
aI9
aI1
aI15
aI6
aI16
aI8
aI5
aI12
aI2
aa(lp124
I21
aI27
aI20
aI42
aI0
aI44
aI48
aI4
aI19
aI29
aI45
aI39
aI34
aI25
aI49
aI51
aI10
aI2
aI47
aI41
aI18
aI8
aI1
aI9
aI7
aI52
aI6
aI46
aI40
aI31
aI5
aI24
aI26
aI23
aI50
aI30
aI3
aI43
aI17
aI22
aI28
aI12
aI14
aI13
aI16
aI38
aI37
aI33
aI32
aI15
aI11
aI36
aI35
aa(lp125
I3
aI0
aI1
aI2
aa(lp126
I0
aa(lp127
I3
aI5
aI9
aI0
aI8
aI10
aI2
aI7
aI14
aI11
aI6
aI12
aI15
aI1
aI13
aI4
aa(lp128
I5
aI6
aI3
aI2
aI4
aI1
aI0
aa(lp129
I2
aI0
aI1
aa(lp130
I2
aI0
aI1
aa(lp131
I6
aI4
aI5
aI7
aI3
aI0
aI9
aI12
aI8
aI11
aI1
aI2
aI10
aa(lp132
I1
aI3
aI4
aI2
aI0
aa(lp133
I3
aI4
aI9
aI0
aI10
aI8
aI5
aI12
aI7
aI1
aI11
aI6
aI2
aa(lp134
I0
aI2
aI1
aa(lp135
I2
aI3
aI7
aI0
aI9
aI6
aI1
aI5
aI4
aI8
aa(lp136
I4
aI7
aI1
aI0
aI2
aI10
aI3
aI11
aI9
aI12
aI5
aI8
aI6
aa(lp137
I9
aI6
aI5
aI2
aI1
aI4
aI3
aI0
aI7
aI8
aa(lp138
I34
aI43
aI10
aI32
aI1
aI40
aI18
aI45
aI41
aI59
aI30
aI44
aI23
aI17
aI81
aI52
aI14
aI9
aI5
aI19
aI117
aI37
aI86
aI61
aI78
aI77
aI35
aI12
aI3
aI72
aI46
aI105
aI83
aI68
aI120
aI66
aI97
aI20
aI79
aI7
aI8
aI4
aI104
aI74
aI91
aI96
aI82
aI33
aI48
aI71
aI22
aI75
aI21
aI76
aI108
aI63
aI39
aI92
aI107
aI36
aI6
aI115
aI57
aI62
aI114
aI110
aI25
aI15
aI58
aI94
aI53
aI16
aI67
aI73
aI112
aI2
aI80
aI55
aI88
aI100
aI90
aI0
aI51
aI69
aI119
aI65
aI95
aI60
aI113
aI11
aI64
aI29
aI99
aI103
aI93
aI85
aI102
aI111
aI47
aI24
aI118
aI70
aI31
aI101
aI27
aI38
aI26
aI54
aI84
aI116
aI49
aI13
aI98
aI106
aI87
aI42
aI56
aI109
aI89
aI50
aI28
aa(lp139
I2
aI4
aI1
aI0
aI6
aI11
aI8
aI7
aI10
aI3
aI9
aI5
aa(lp140
I1
aI8
aI2
aI7
aI5
aI3
aI6
aI0
aI9
aI4
aa(lp141
I3
aI2
aI6
aI1
aI0
aI4
aI5
aa(lp142
I1
aI6
aI7
aI5
aI4
aI3
aI2
aI0
aa(lp143
I1
aI0
aa(lp144
I9
aI0
aI11
aI13
aI8
aI6
aI12
aI5
aI4
aI1
aI2
aI7
aI10
aI3
aa(lp145
I17
aI4
aI3
aI16
aI0
aI20
aI6
aI21
aI18
aI11
aI8
aI24
aI13
aI19
aI23
aI22
aI12
aI25
aI10
aI9
aI5
aI2
aI15
aI7
aI1
aI14
aa(lp146
I14
aI4
aI29
aI23
aI18
aI12
aI21
aI6
aI9
aI24
aI31
aI28
aI1
aI5
aI20
aI8
aI10
aI27
aI17
aI15
aI7
aI25
aI26
aI32
aI16
aI0
aI30
aI22
aI19
aI13
aI11
aI3
aI2
aa(lp147
I4
aI3
aI0
aI2
aI5
aI1
aa(lp148
I0
aI1
aI10
aI5
aI8
aI6
aI3
aI4
aI2
aI7
aI9
aa(lp149
I1
aI7
aI8
aI5
aI6
aI9
aI4
aI2
aI10
aI3
aI0
aa(lp150
I6
aI9
aI12
aI7
aI5
aI15
aI17
aI1
aI16
aI0
aI13
aI10
aI3
aI11
aI14
aI4
aI2
aI8
aa(lp151
I8
aI0
aI5
aI12
aI6
aI10
aI7
aI11
aI4
aI3
aI1
aI9
aI2
aa(lp152
I9
aI8
aI7
aI6
aI5
aI4
aI3
aI2
aI1
aI0
aa(lp153
I3
aI11
aI2
aI9
aI8
aI0
aI10
aI6
aI1
aI5
aI7
aI4
aa(lp154
I17
aI18
aI0
aI3
aI8
aI13
aI14
aI12
aI11
aI5
aI1
aI2
aI15
aI19
aI10
aI4
aI20
aI6
aI9
aI16
aI7
aa(lp155
I4
aI10
aI9
aI19
aI20
aI11
aI12
aI3
aI2
aI16
aI0
aI5
aI14
aI18
aI1
aI7
aI22
aI21
aI8
aI6
aI15
aI17
aI13
aa(lp156
I0
aI13
aI22
aI17
aI15
aI3
aI14
aI4
aI20
aI2
aI16
aI5
aI11
aI18
aI21
aI12
aI8
aI9
aI19
aI7
aI10
aI1
aI6
aa(lp157
I27
aI4
aI30
aI0
aI28
aI31
aI15
aI38
aI11
aI6
aI32
aI21
aI16
aI7
aI35
aI19
aI12
aI26
aI17
aI23
aI29
aI24
aI36
aI20
aI10
aI5
aI34
aI9
aI37
aI25
aI1
aI22
aI14
aI13
aI33
aI18
aI8
aI2
aI3
aa(lp158
I4
aI1
aI2
aI7
aI6
aI5
aI3
aI0
aa(lp159
I0
aI6
aI7
aI2
aI3
aI13
aI10
aI17
aI15
aI1
aI4
aI9
aI5
aI11
aI18
aI14
aI8
aI16
aI12
aa(lp160
I5
aI0
aI3
aI2
aI21
aI7
aI18
aI20
aI1
aI13
aI19
aI15
aI6
aI10
aI17
aI11
aI4
aI22
aI9
aI16
aI12
aI8
aI14
aI23
aa(lp161
I14
aI19
aI20
aI18
aI31
aI17
aI8
aI10
aI12
aI1
aI27
aI25
aI5
aI9
aI13
aI4
aI0
aI11
aI29
aI2
aI6
aI3
aI16
aI23
aI30
aI28
aI15
aI7
aI22
aI26
aI21
aI24
aa(lp162
I1
aI0
aI7
aI3
aI8
aI10
aI5
aI9
aI6
aI2
aI4
aa(lp163
I17
aI1
aI2
aI0
aI7
aI6
aI11
aI12
aI3
aI18
aI16
aI14
aI13
aI10
aI9
aI8
aI5
aI4
aI15
aa(lp164
I1
aI6
aI4
aI7
aI8
aI5
aI3
aI2
aI0
aa(lp165
I2
aI1
aI0
aa(lp166
I5
aI0
aI1
aI2
aI6
aI4
aI3
aa(lp167
I12
aI6
aI11
aI17
aI1
aI4
aI3
aI0
aI10
aI9
aI8
aI7
aI2
aI14
aI13
aI16
aI15
aI5
aa(lp168
I4
aI2
aI14
aI9
aI10
aI23
aI13
aI1
aI12
aI8
aI22
aI21
aI5
aI27
aI16
aI24
aI3
aI26
aI7
aI6
aI20
aI11
aI25
aI18
aI15
aI0
aI19
aI17
aa(lp169
I12
aI9
aI2
aI11
aI15
aI14
aI13
aI6
aI5
aI7
aI1
aI4
aI0
aI8
aI10
aI3
aa(lp170
I1
aI0
aa(lp171
I1
aI2
aI0
aI3
aa(lp172
I5
aI26
aI29
aI16
aI25
aI14
aI23
aI15
aI0
aI10
aI27
aI17
aI7
aI22
aI11
aI13
aI18
aI28
aI32
aI24
aI12
aI19
aI31
aI21
aI8
aI1
aI9
aI30
aI20
aI4
aI2
aI6
aI3
aa(lp173
I1
aI12
aI9
aI8
aI4
aI3
aI13
aI11
aI7
aI16
aI15
aI10
aI0
aI14
aI6
aI5
aI2
aa(lp174
I3
aI21
aI10
aI16
aI11
aI1
aI0
aI14
aI4
aI18
aI17
aI6
aI5
aI2
aI20
aI9
aI23
aI19
aI7
aI15
aI13
aI12
aI22
aI8
aa(lp175
I0
aI2
aI6
aI1
aI8
aI9
aI4
aI10
aI5
aI7
aI3
aa(lp176
I15
aI9
aI4
aI0
aI17
aI12
aI14
aI13
aI11
aI8
aI7
aI1
aI18
aI16
aI10
aI6
aI5
aI3
aI2
aa(lp177
I5
aI6
aI9
aI1
aI8
aI10
aI7
aI0
aI3
aI2
aI4
aa(lp178
I15
aI0
aI13
aI14
aI23
aI22
aI11
aI12
aI19
aI1
aI17
aI6
aI9
aI20
aI10
aI3
aI24
aI21
aI18
aI2
aI16
aI5
aI7
aI8
aI4
aa(lp179
I0
aI1
aI2
aa(lp180
I4
aI3
aI2
aI1
aI0
aa(lp181
I21
aI9
aI12
aI4
aI20
aI3
aI2
aI18
aI7
aI17
aI14
aI5
aI24
aI19
aI23
aI22
aI11
aI27
aI26
aI15
aI13
aI10
aI25
aI16
aI8
aI6
aI1
aI0
aa(lp182
I2
aI10
aI12
aI8
aI14
aI11
aI17
aI0
aI5
aI1
aI4
aI16
aI19
aI6
aI3
aI18
aI13
aI9
aI15
aI20
aI7
aa(lp183
I4
aI3
aI0
aI6
aI9
aI7
aI8
aI2
aI5
aI1
aa(lp184
I0
aI1
aI2
aI3
aa(lp185
I1
aI2
aI0
aI9
aI7
aI12
aI4
aI3
aI10
aI11
aI6
aI5
aI8
aa(lp186
I8
aI22
aI17
aI14
aI23
aI19
aI12
aI2
aI6
aI16
aI0
aI5
aI21
aI18
aI10
aI20
aI13
aI4
aI9
aI1
aI11
aI7
aI24
aI15
aI3
aa(lp187
I1
aI6
aI5
aI0
aI4
aI3
aI2
aa(lp188
I4
aI11
aI3
aI9
aI7
aI15
aI8
aI2
aI1
aI0
aI14
aI13
aI12
aI10
aI6
aI5
aa(lp189
I5
aI0
aI1
aI4
aI3
aI2
aa(lp190
I6
aI9
aI7
aI3
aI5
aI8
aI0
aI4
aI1
aI2
aa(lp191
I0
aI6
aI2
aI5
aI4
aI1
aI3
aa(lp192
I3
aI1
aI0
aI4
aI2
aa(lp193
I6
aI1
aI5
aI0
aI3
aI9
aI4
aI8
aI7
aI11
aI2
aI10
aa(lp194
I4
aI7
aI0
aI2
aI6
aI3
aI1
aI5
aa(lp195
I2
aI0
aI4
aI5
aI1
aI3
aa(lp196
I8
aI2
aI4
aI22
aI21
aI25
aI14
aI10
aI28
aI17
aI26
aI6
aI9
aI13
aI20
aI19
aI11
aI16
aI5
aI23
aI18
aI12
aI15
aI7
aI24
aI27
aI0
aI3
aI1
aa(lp197
I2
aI3
aI9
aI31
aI26
aI15
aI24
aI7
aI36
aI32
aI21
aI14
aI35
aI20
aI22
aI27
aI19
aI12
aI4
aI29
aI17
aI11
aI1
aI16
aI6
aI0
aI34
aI28
aI10
aI5
aI18
aI33
aI30
aI25
aI23
aI13
aI8
aa(lp198
I0
aI2
aI1
aa(lp199
I5
aI7
aI1
aI6
aI3
aI4
aI0
aI2
aa(lp200
I2
aI0
aI1
aI5
aI8
aI6
aI4
aI7
aI3
aI9
aa(lp201
I5
aI4
aI0
aI6
aI3
aI7
aI1
aI2
aa(lp202
I2
aI1
aI4
aI16
aI0
aI6
aI17
aI14
aI15
aI11
aI9
aI5
aI13
aI10
aI3
aI12
aI7
aI8
aa(lp203
I4
aI6
aI1
aI26
aI5
aI2
aI27
aI0
aI13
aI3
aI8
aI25
aI7
aI11
aI15
aI19
aI9
aI21
aI28
aI23
aI18
aI22
aI24
aI20
aI17
aI14
aI10
aI12
aI16
aa(lp204
I11
aI12
aI14
aI16
aI7
aI1
aI0
aI10
aI3
aI15
aI5
aI13
aI8
aI9
aI6
aI2
aI4
aa(lp205
I1
aI0
aa(lp206
I4
aI7
aI1
aI3
aI5
aI6
aI8
aI2
aI9
aI0
aa(lp207
I3
aI1
aI0
aI9
aI6
aI8
aI10
aI2
aI5
aI7
aI4
aa(lp208
I0
aI1
aI33
aI27
aI28
aI2
aI15
aI34
aI30
aI21
aI29
aI31
aI23
aI22
aI6
aI5
aI10
aI24
aI8
aI32
aI25
aI12
aI14
aI7
aI18
aI20
aI9
aI4
aI19
aI13
aI16
aI11
aI3
aI26
aI17
aa(lp209
I3
aI1
aI2
aI7
aI4
aI8
aI6
aI11
aI0
aI12
aI10
aI9
aI5
aa(lp210
I5
aI8
aI3
aI0
aI2
aI4
aI1
aI10
aI9
aI6
aI11
aI7
aa(lp211
I9
aI8
aI7
aI4
aI2
aI3
aI5
aI0
aI6
aI1
aa(lp212
I3
aI10
aI4
aI6
aI0
aI2
aI24
aI1
aI26
aI21
aI15
aI7
aI25
aI16
aI20
aI18
aI12
aI14
aI23
aI22
aI19
aI13
aI5
aI17
aI11
aI8
aI9
aI27
aa(lp213
I1
aI0
aa(lp214
I0
aI4
aI3
aI2
aI1
aI5
aa(lp215
I1
aI0
aI2
aa(lp216
I3
aI0
aI2
aI1
aa(lp217
I1
aI6
aI4
aI2
aI11
aI13
aI3
aI5
aI7
aI0
aI10
aI8
aI9
aI12
aa(lp218
I2
aI0
aI1
aa(lp219
I4
aI3
aI2
aI1
aI0
aa(lp220
I0
aI5
aI3
aI1
aI4
aI2
aa(lp221
I1
aI3
aI2
aI6
aI0
aI7
aI5
aI4
aa(lp222
I3
aI8
aI10
aI1
aI9
aI7
aI5
aI2
aI6
aI4
aI0
aa(lp223
I0
aa(lp224
I6
aI36
aI54
aI50
aI7
aI30
aI16
aI51
aI10
aI41
aI32
aI40
aI15
aI11
aI17
aI13
aI34
aI27
aI44
aI20
aI2
aI39
aI4
aI56
aI21
aI5
aI26
aI8
aI19
aI22
aI0
aI3
aI24
aI25
aI46
aI9
aI43
aI53
aI47
aI33
aI45
aI52
aI49
aI1
aI48
aI28
aI12
aI31
aI23
aI38
aI29
aI42
aI37
aI18
aI55
aI35
aI14
aa(lp225
I4
aI1
aI11
aI15
aI2
aI8
aI12
aI5
aI10
aI3
aI0
aI7
aI9
aI19
aI6
aI20
aI14
aI18
aI17
aI16
aI13
aa(lp226
I13
aI14
aI3
aI6
aI16
aI47
aI12
aI19
aI49
aI10
aI1
aI9
aI28
aI48
aI11
aI32
aI52
aI0
aI50
aI51
aI22
aI38
aI7
aI42
aI2
aI21
aI29
aI26
aI40
aI23
aI8
aI31
aI41
aI39
aI36
aI37
aI20
aI33
aI15
aI43
aI5
aI35
aI44
aI24
aI25
aI17
aI4
aI46
aI27
aI18
aI34
aI45
aI30
aa(lp227
I9
aI14
aI10
aI1
aI3
aI15
aI5
aI7
aI0
aI8
aI13
aI6
aI12
aI11
aI4
aI2
aa(lp228
I1
aI2
aI3
aI24
aI12
aI8
aI26
aI29
aI9
aI23
aI13
aI14
aI28
aI10
aI25
aI27
aI11
aI4
aI0
aI7
aI17
aI18
aI21
aI22
aI20
aI19
aI15
aI5
aI16
aI6
aa(lp229
I1
aI6
aI2
aI10
aI4
aI9
aI11
aI8
aI0
aI5
aI12
aI7
aI3
aa(lp230
I0
aI6
aI2
aI10
aI8
aI5
aI3
aI7
aI9
aI4
aI1
aa(lp231
I1
aI0
aa(lp232
I4
aI7
aI3
aI8
aI6
aI1
aI9
aI11
aI0
aI10
aI5
aI2
aa(lp233
I0
aI27
aI19
aI14
aI30
aI16
aI5
aI1
aI6
aI28
aI11
aI15
aI10
aI7
aI31
aI24
aI26
aI2
aI9
aI29
aI20
aI12
aI4
aI3
aI23
aI13
aI22
aI8
aI17
aI18
aI25
aI21
aa(lp234
I7
aI4
aI1
aI0
aI2
aI6
aI5
aI3
aa(lp235
I2
aI0
aI3
aI1
aa(lp236
I2
aI4
aI5
aI3
aI0
aI1
aa(lp237
I0
aI1
aa(lp238
I2
aI22
aI6
aI14
aI23
aI13
aI9
aI0
aI15
aI17
aI8
aI1
aI5
aI19
aI21
aI18
aI11
aI10
aI7
aI4
aI20
aI16
aI3
aI24
aI12
aa(lp239
I15
aI8
aI3
aI10
aI5
aI14
aI4
aI1
aI13
aI6
aI11
aI2
aI12
aI7
aI0
aI9
aa(lp240
I7
aI9
aI5
aI11
aI12
aI8
aI10
aI0
aI4
aI6
aI15
aI3
aI2
aI16
aI17
aI18
aI14
aI13
aI1
aa(lp241
I0
aI2
aI3
aI6
aI5
aI4
aI1
aa(lp242
I8
aI1
aI6
aI7
aI5
aI3
aI10
aI2
aI0
aI9
aI4
aa(lp243
I1
aI0
aI2
aa(lp244
I1
aI4
aI5
aI3
aI2
aI0
aa(lp245
I2
aI3
aI4
aI1
aI0
aI5
aa(lp246
I4
aI1
aI2
aI0
aI3
aa(lp247
I10
aI6
aI8
aI5
aI1
aI9
aI7
aI2
aI4
aI0
aI3
aa(lp248
I3
aI0
aI2
aI1
aa(lp249
I1
aI0
aa(lp250
I3
aI8
aI0
aI11
aI9
aI7
aI4
aI2
aI1
aI5
aI10
aI13
aI6
aI12
aa(lp251
I0
aI3
aI8
aI2
aI1
aI12
aI4
aI11
aI6
aI9
aI10
aI7
aI5
aa(lp252
I2
aI0
aI3
aI1
aa(lp253
I1
aI0
aI2
aa(lp254
I5
aI1
aI6
aI8
aI0
aI3
aI7
aI4
aI2
aa(lp255
I0
aI2
aI3
aI1
aI7
aI4
aI5
aI6
aa(lp256
I19
aI23
aI18
aI0
aI6
aI27
aI44
aI36
aI4
aI37
aI22
aI17
aI16
aI13
aI39
aI35
aI5
aI3
aI38
aI20
aI12
aI25
aI1
aI42
aI7
aI10
aI11
aI43
aI40
aI34
aI28
aI41
aI15
aI31
aI2
aI32
aI8
aI21
aI26
aI30
aI9
aI33
aI29
aI14
aI24
aa(lp257
I0
aI12
aI18
aI14
aI13
aI17
aI15
aI4
aI6
aI16
aI10
aI9
aI2
aI8
aI11
aI7
aI1
aI3
aI5
aa(lp258
I4
aI6
aI3
aI1
aI0
aI5
aI2
aa(lp259
I6
aI8
aI15
aI13
aI10
aI1
aI16
aI17
aI9
aI14
aI3
aI12
aI11
aI7
aI5
aI4
aI2
aI0
aa(lp260
I21
aI0
aI19
aI18
aI20
aI3
aI17
aI10
aI13
aI12
aI11
aI9
aI8
aI16
aI14
aI7
aI15
aI6
aI1
aI4
aI2
aI5
aa(lp261
I34
aI1
aI12
aI13
aI24
aI28
aI17
aI0
aI39
aI19
aI20
aI15
aI38
aI11
aI37
aI7
aI10
aI29
aI26
aI36
aI23
aI33
aI4
aI32
aI16
aI25
aI30
aI14
aI8
aI31
aI6
aI35
aI5
aI9
aI21
aI22
aI18
aI3
aI2
aI27
aa(lp262
I0
aI7
aI2
aI11
aI12
aI1
aI6
aI15
aI3
aI10
aI4
aI8
aI9
aI5
aI13
aI14
aI16
aa(lp263
I0
aI1
aa(lp264
I1
aI0
aI2
aI5
aI4
aI3
aa(lp265
I12
aI6
aI3
aI7
aI1
aI4
aI5
aI9
aI11
aI10
aI0
aI2
aI8
aa(lp266
I1
aI0
aI2
aI3
aa(lp267
I4
aI5
aI3
aI1
aI6
aI0
aI2
aa(lp268
I17
aI0
aI7
aI19
aI27
aI22
aI1
aI25
aI18
aI20
aI10
aI28
aI12
aI21
aI23
aI24
aI9
aI8
aI16
aI13
aI26
aI3
aI11
aI14
aI4
aI32
aI31
aI2
aI15
aI6
aI30
aI29
aI5
aa(lp269
I0
aI5
aI4
aI2
aI3
aI1
aa(lp270
I3
aI2
aI4
aI5
aI0
aI7
aI1
aI6
aI8
aa(lp271
I4
aI3
aI1
aI0
aI5
aI2
aa(lp272
I3
aI4
aI5
aI0
aI11
aI12
aI2
aI17
aI9
aI7
aI1
aI13
aI8
aI18
aI10
aI15
aI14
aI16
aI6
aa(lp273
I7
aI1
aI3
aI9
aI10
aI6
aI2
aI5
aI11
aI8
aI4
aI0
aa(lp274
I2
aI1
aI6
aI4
aI7
aI5
aI3
aI0
aa(lp275
I0
aI13
aI8
aI18
aI15
aI12
aI11
aI6
aI5
aI1
aI17
aI16
aI10
aI9
aI7
aI4
aI3
aI2
aI14
aa(lp276
I1
aI0
aI2
aI4
aI3
aI7
aI6
aI5
aa(lp277
I12
aI0
aI5
aI8
aI9
aI2
aI3
aI10
aI11
aI13
aI4
aI6
aI15
aI7
aI1
aI14
aa(lp278
I1
aI0
aI3
aI2
aa(lp279
I0
aI7
aI5
aI3
aI4
aI1
aI2
aI6
aa(lp280
I19
aI13
aI9
aI2
aI17
aI12
aI18
aI15
aI10
aI7
aI16
aI14
aI11
aI0
aI4
aI8
aI6
aI1
aI5
aI3
aa(lp281
I0
aI2
aI1
aI3
aa(lp282
I7
aI3
aI2
aI5
aI4
aI0
aI6
aI1
aa(lp283
I4
aI2
aI16
aI12
aI6
aI13
aI8
aI3
aI0
aI14
aI17
aI18
aI11
aI10
aI7
aI15
aI1
aI9
aI5
aa(lp284
I3
aI8
aI5
aI10
aI12
aI4
aI11
aI9
aI13
aI15
aI0
aI6
aI2
aI1
aI14
aI7
aa(lp285
I12
aI15
aI6
aI4
aI10
aI3
aI14
aI2
aI8
aI5
aI16
aI9
aI7
aI0
aI1
aI11
aI13
aa(lp286
I3
aI5
aI6
aI0
aI2
aI4
aI1
aa(lp287
I2
aI7
aI11
aI4
aI5
aI12
aI8
aI10
aI0
aI13
aI9
aI6
aI3
aI1
aa(lp288
I3
aI10
aI2
aI9
aI4
aI8
aI1
aI6
aI5
aI7
aI0
aa(lp289
I2
aI3
aI10
aI8
aI11
aI9
aI5
aI4
aI6
aI1
aI0
aI7
aa(lp290
I2
aI8
aI0
aI3
aI1
aI7
aI9
aI4
aI6
aI5
aa(lp291
I3
aI0
aI1
aI30
aI13
aI4
aI31
aI14
aI5
aI19
aI15
aI25
aI6
aI16
aI9
aI10
aI24
aI12
aI36
aI35
aI29
aI22
aI26
aI11
aI8
aI27
aI32
aI21
aI18
aI7
aI33
aI23
aI34
aI2
aI17
aI28
aI20
aa(lp292
I6
aI21
aI10
aI26
aI16
aI38
aI22
aI33
aI8
aI4
aI31
aI36
aI30
aI34
aI15
aI29
aI32
aI5
aI35
aI9
aI27
aI19
aI2
aI7
aI17
aI18
aI39
aI28
aI12
aI11
aI23
aI25
aI24
aI37
aI14
aI13
aI1
aI20
aI0
aI3
aa(lp293
I5
aI1
aI2
aI6
aI0
aI4
aI10
aI13
aI9
aI8
aI3
aI12
aI7
aI11
aa(lp294
I7
aI8
aI10
aI17
aI19
aI9
aI11
aI0
aI23
aI6
aI22
aI2
aI21
aI12
aI4
aI18
aI1
aI20
aI16
aI13
aI15
aI5
aI3
aI14
aa(lp295
I3
aI2
aI4
aI0
aI1
aa(lp296
I0
aI2
aI1
aI3
aa(lp297
I4
aI0
aI1
aI6
aI7
aI5
aI2
aI3
aa(lp298
I5
aI18
aI19
aI10
aI6
aI7
aI16
aI20
aI3
aI14
aI2
aI4
aI13
aI11
aI9
aI8
aI17
aI15
aI12
aI1
aI0
aa(lp299
I5
aI1
aI4
aI2
aI0
aI3
aa(lp300
I22
aI29
aI35
aI16
aI9
aI26
aI37
aI15
aI32
aI23
aI36
aI8
aI38
aI1
aI5
aI6
aI20
aI30
aI31
aI4
aI10
aI24
aI19
aI12
aI21
aI18
aI34
aI33
aI3
aI11
aI25
aI17
aI14
aI13
aI7
aI28
aI27
aI2
aI0
aa(lp301
I1
aI8
aI11
aI10
aI13
aI4
aI0
aI12
aI3
aI14
aI9
aI5
aI15
aI2
aI7
aI6
aa(lp302
I1
aI0
aI2
aa(lp303
I2
aI4
aI3
aI1
aI0
aI5
aI6
aa(lp304
I9
aI8
aI3
aI2
aI1
aI12
aI6
aI7
aI4
aI11
aI5
aI10
aI0
aa(lp305
I2
aI3
aI5
aI4
aI6
aI0
aI1
aa(lp306
I2
aI0
aI3
aI7
aI6
aI8
aI4
aI1
aI9
aI5
aa(lp307
I8
aI4
aI0
aI3
aI1
aI2
aI9
aI7
aI6
aI5
aI10
aI11
aa(lp308
I12
aI6
aI8
aI7
aI15
aI11
aI0
aI14
aI10
aI13
aI4
aI1
aI3
aI9
aI5
aI2
aa(lp309
I8
aI9
aI20
aI13
aI6
aI1
aI16
aI14
aI15
aI5
aI19
aI18
aI10
aI0
aI7
aI3
aI17
aI11
aI2
aI12
aI4
aa(lp310
I0
aa(lp311
I1
aI4
aI2
aI3
aI0
aa(lp312
I9
aI2
aI5
aI6
aI3
aI7
aI1
aI4
aI0
aI8
aI10
aa(lp313
I3
aI4
aI5
aI2
aI0
aI6
aI1
aa(lp314
I0
aI6
aI5
aI1
aI7
aI4
aI3
aI2
aI8
aa(lp315
I8
aI9
aI3
aI1
aI6
aI5
aI0
aI7
aI2
aI4
aa(lp316
I1
aI6
aI4
aI9
aI11
aI5
aI0
aI7
aI2
aI3
aI8
aI10
aa(lp317
I4
aI0
aI1
aI3
aI2
aI5
aa(lp318
I4
aI3
aI1
aI0
aI2
aa(lp319
I2
aI7
aI4
aI5
aI9
aI1
aI0
aI8
aI6
aI3
aa(lp320
I17
aI4
aI10
aI11
aI8
aI22
aI2
aI15
aI5
aI18
aI0
aI3
aI1
aI7
aI27
aI12
aI16
aI19
aI20
aI21
aI13
aI6
aI25
aI9
aI26
aI24
aI23
aI14
aa(lp321
I11
aI10
aI2
aI3
aI9
aI7
aI6
aI0
aI1
aI5
aI4
aI8
aa(lp322
I1
aI2
aI5
aI3
aI4
aI0
aa(lp323
I3
aI2
aI1
aI0
aI4
aI9
aI15
aI17
aI13
aI10
aI12
aI8
aI7
aI11
aI16
aI5
aI18
aI14
aI6
aa(lp324
I16
aI14
aI10
aI13
aI12
aI6
aI5
aI17
aI15
aI7
aI2
aI11
aI8
aI4
aI3
aI9
aI0
aI1
aa(lp325
I8
aI6
aI3
aI9
aI11
aI14
aI10
aI16
aI17
aI13
aI15
aI12
aI4
aI0
aI2
aI22
aI20
aI19
aI5
aI21
aI1
aI7
aI18
aa(lp326
I2
aI1
aI3
aI0
aa(lp327
I4
aI3
aI1
aI2
aI0
aa(lp328
I82
aI58
aI102
aI98
aI44
aI77
aI54
aI24
aI101
aI91
aI73
aI9
aI41
aI78
aI69
aI29
aI25
aI80
aI79
aI48
aI32
aI66
aI56
aI83
aI86
aI84
aI70
aI45
aI4
aI85
aI94
aI7
aI104
aI96
aI81
aI65
aI43
aI37
aI34
aI3
aI63
aI35
aI1
aI18
aI105
aI97
aI76
aI47
aI23
aI15
aI61
aI100
aI99
aI68
aI60
aI53
aI51
aI50
aI39
aI38
aI26
aI22
aI21
aI17
aI14
aI87
aI62
aI89
aI5
aI103
aI93
aI92
aI90
aI74
aI71
aI59
aI57
aI52
aI46
aI36
aI30
aI27
aI20
aI16
aI13
aI12
aI10
aI6
aI0
aI95
aI88
aI75
aI72
aI67
aI64
aI55
aI49
aI42
aI40
aI33
aI31
aI28
aI19
aI11
aI8
aI2
aa(lp329
I2
aI1
aI0
aa(lp330
I0
aI15
aI2
aI16
aI1
aI3
aI5
aI8
aI4
aI13
aI7
aI14
aI12
aI10
aI9
aI18
aI11
aI6
aI19
aI17
aa(lp331
I1
aI2
aI0
aa(lp332
I4
aI0
aI1
aI3
aI2
aa(lp333
I0
aI4
aI2
aI11
aI10
aI1
aI12
aI7
aI9
aI5
aI8
aI3
aI6
aa(lp334
I0
aI1
aI4
aI3
aI2
aa(lp335
I19
aI17
aI7
aI1
aI9
aI8
aI3
aI13
aI6
aI18
aI11
aI16
aI5
aI20
aI14
aI12
aI15
aI0
aI10
aI4
aI2
aa(lp336
I1
aI4
aI13
aI21
aI5
aI20
aI2
aI6
aI0
aI3
aI14
aI15
aI10
aI11
aI12
aI9
aI19
aI7
aI17
aI16
aI8
aI18
aa(lp337
I7
aI4
aI9
aI1
aI8
aI3
aI2
aI6
aI5
aI0
aa(lp338
I5
aI0
aI6
aI3
aI4
aI2
aI1
aa(lp339
I2
aI6
aI12
aI14
aI13
aI9
aI0
aI3
aI15
aI10
aI8
aI11
aI5
aI4
aI1
aI7
aa(lp340
I1
aI2
aI0
aa(lp341
I11
aI6
aI10
aI1
aI4
aI3
aI8
aI2
aI0
aI9
aI5
aI7
aa(lp342
I0
aI2
aI3
aI1
aI4
aI6
aI7
aI5
aa(lp343
I2
aI0
aI3
aI1
aa(lp344
I3
aI10
aI5
aI1
aI9
aI8
aI4
aI7
aI6
aI11
aI12
aI2
aI0
aa(lp345
I1
aI4
aI5
aI3
aI2
aI0
aa(lp346
I8
aI6
aI5
aI4
aI3
aI12
aI9
aI11
aI7
aI2
aI1
aI0
aI10
aa(lp347
I0
aI3
aI2
aI1
aa(lp348
I4
aI5
aI2
aI0
aI1
aI3
aa(lp349
I0
aI2
aI1
aI3
aa(lp350
I3
aI2
aI1
aI0
aI4
aI5
aI6
aa(lp351
I0
aI4
aI9
aI18
aI25
aI24
aI8
aI20
aI15
aI22
aI14
aI30
aI23
aI12
aI3
aI28
aI19
aI2
aI1
aI27
aI16
aI6
aI7
aI21
aI26
aI13
aI11
aI10
aI29
aI17
aI5
aa(lp352
I0
aI5
aI1
aI4
aI2
aI6
aI3
aI7
aa(lp353
I2
aI0
aI4
aI3
aI1
aI5
aa(lp354
I5
aI0
aI2
aI1
aI4
aI12
aI6
aI8
aI3
aI10
aI11
aI9
aI7
aa(lp355
I5
aI2
aI3
aI4
aI11
aI1
aI27
aI16
aI12
aI15
aI17
aI13
aI28
aI21
aI22
aI0
aI24
aI7
aI31
aI14
aI23
aI6
aI30
aI29
aI26
aI25
aI19
aI9
aI20
aI18
aI10
aI8
aa(lp356
I10
aI12
aI6
aI9
aI7
aI8
aI18
aI11
aI2
aI14
aI4
aI0
aI3
aI16
aI15
aI1
aI17
aI13
aI5
aa(lp357
I0
aI1
aa(lp358
I17
aI16
aI18
aI10
aI14
aI8
aI15
aI1
aI13
aI5
aI7
aI9
aI12
aI6
aI4
aI11
aI3
aI2
aI0
aa(lp359
I1
aI0
aI3
aI2
aI4
aa(lp360
I0
aI1
aa(lp361
I31
aI15
aI5
aI27
aI26
aI28
aI34
aI4
aI30
aI10
aI16
aI24
aI7
aI1
aI20
aI11
aI19
aI33
aI8
aI13
aI3
aI17
aI14
aI9
aI25
aI35
aI23
aI22
aI32
aI36
aI29
aI21
aI12
aI2
aI0
aI37
aI18
aI6
aa(lp362
I0
aI2
aI5
aI4
aI3
aI1
aa(lp363
I0
aI3
aI5
aI9
aI2
aI4
aI1
aI7
aI10
aI6
aI11
aI8
aa(lp364
I6
aI3
aI8
aI9
aI11
aI14
aI12
aI13
aI0
aI1
aI10
aI7
aI15
aI5
aI4
aI2
aa(lp365
I0
aI1
aI6
aI2
aI3
aI4
aI5
aa(lp366
I0
aI2
aI1
aa(lp367
I14
aI8
aI3
aI9
aI11
aI17
aI19
aI18
aI4
aI12
aI1
aI15
aI13
aI10
aI16
aI2
aI7
aI5
aI0
aI6
aa(lp368
I0
aI3
aI1
aI2
aa(lp369
I1
aI0
aI7
aI5
aI4
aI3
aI6
aI2
aa(lp370
I6
aI5
aI4
aI3
aI2
aI1
aI0
aa(lp371
I23
aI6
aI8
aI2
aI0
aI4
aI1
aI10
aI18
aI13
aI12
aI5
aI22
aI16
aI17
aI3
aI11
aI9
aI25
aI7
aI20
aI19
aI14
aI24
aI15
aI21
aa(lp372
I0
aI2
aI6
aI4
aI7
aI8
aI10
aI3
aI1
aI9
aI5
aI11
aa(lp373
I26
aI16
aI22
aI33
aI17
aI0
aI1
aI31
aI30
aI28
aI23
aI13
aI25
aI12
aI8
aI32
aI11
aI9
aI4
aI14
aI24
aI5
aI2
aI20
aI10
aI15
aI7
aI21
aI19
aI29
aI3
aI27
aI6
aI18
aa(lp374
I6
aI3
aI2
aI12
aI0
aI4
aI15
aI16
aI11
aI1
aI9
aI10
aI14
aI13
aI7
aI5
aI8
aa(lp375
I4
aI5
aI1
aI3
aI0
aI2
aa(lp376
I3
aI8
aI0
aI7
aI2
aI11
aI6
aI4
aI1
aI10
aI9
aI5
aa(lp377
I1
aI0
aI3
aI2
aa(lp378
I19
aI16
aI23
aI9
aI0
aI10
aI3
aI15
aI5
aI22
aI12
aI18
aI20
aI21
aI13
aI2
aI7
aI8
aI4
aI11
aI1
aI17
aI14
aI6
aa(lp379
I14
aI5
aI4
aI10
aI12
aI8
aI2
aI1
aI6
aI13
aI15
aI11
aI9
aI7
aI3
aI0
aa(lp380
I2
aI6
aI0
aI3
aI1
aI5
aI4
aa(lp381
I2
aI1
aI3
aI0
aI4
aa(lp382
I4
aI3
aI6
aI0
aI1
aI2
aI5
aa(lp383
I1
aI5
aI4
aI8
aI2
aI6
aI7
aI3
aI0
aa(lp384
I2
aI21
aI15
aI25
aI22
aI4
aI8
aI23
aI18
aI17
aI13
aI16
aI6
aI3
aI9
aI14
aI12
aI20
aI19
aI7
aI10
aI0
aI5
aI24
aI1
aI11
aa(lp385
I2
aI3
aI6
aI1
aI8
aI0
aI5
aI7
aI4
aa(lp386
I15
aI4
aI14
aI16
aI39
aI33
aI1
aI10
aI26
aI27
aI21
aI6
aI38
aI37
aI36
aI19
aI12
aI3
aI2
aI42
aI31
aI28
aI22
aI18
aI11
aI8
aI5
aI43
aI41
aI40
aI35
aI34
aI32
aI30
aI29
aI25
aI24
aI23
aI20
aI17
aI13
aI9
aI7
aI0
aa(lp387
I2
aI1
aI5
aI0
aI3
aI4
aa(lp388
I6
aI3
aI1
aI5
aI0
aI13
aI2
aI11
aI10
aI4
aI8
aI9
aI12
aI14
aI15
aI16
aI7
aa(lp389
I7
aI3
aI5
aI6
aI1
aI4
aI2
aI0
aa(lp390
I1
aI0
aI4
aI3
aI2
aI5
aa(lp391
I6
aI4
aI2
aI7
aI5
aI3
aI0
aI1
aa(lp392
I9
aI1
aI0
aI12
aI5
aI6
aI2
aI7
aI3
aI8
aI10
aI11
aI4
aI13
aa(lp393
I0
aI2
aI5
aI8
aI6
aI11
aI3
aI7
aI1
aI10
aI9
aI4
aa(lp394
I9
aI0
aI4
aI1
aI3
aI2
aI6
aI7
aI8
aI5
aa(lp395
I11
aI8
aI14
aI12
aI0
aI2
aI10
aI1
aI7
aI13
aI9
aI5
aI3
aI4
aI15
aI6
aa(lp396
I28
aI24
aI0
aI6
aI22
aI19
aI3
aI4
aI12
aI21
aI1
aI23
aI9
aI18
aI26
aI17
aI5
aI14
aI25
aI20
aI2
aI27
aI16
aI10
aI7
aI15
aI29
aI30
aI31
aI11
aI13
aI8
aa(lp397
I0
aI9
aI1
aI4
aI6
aI5
aI3
aI8
aI7
aI2
aa(lp398
I4
aI0
aI5
aI3
aI6
aI7
aI8
aI1
aI2
aa(lp399
I1
aI6
aI8
aI5
aI0
aI4
aI2
aI3
aI9
aI7
aI11
aI10
aa(lp400
I1
aI0
aa(lp401
I1
aI0
aI11
aI10
aI8
aI2
aI7
aI4
aI13
aI3
aI12
aI6
aI5
aI9
aa(lp402
I25
aI2
aI23
aI22
aI7
aI8
aI14
aI21
aI3
aI16
aI26
aI6
aI13
aI20
aI30
aI15
aI18
aI4
aI24
aI27
aI29
aI10
aI17
aI9
aI0
aI28
aI11
aI1
aI5
aI19
aI12
aa(lp403
I20
aI18
aI0
aI13
aI10
aI14
aI7
aI1
aI15
aI16
aI6
aI9
aI2
aI21
aI3
aI12
aI4
aI19
aI11
aI5
aI17
aI8
aa(lp404
I8
aI31
aI24
aI19
aI13
aI25
aI14
aI10
aI0
aI33
aI26
aI12
aI7
aI17
aI30
aI29
aI20
aI6
aI5
aI3
aI2
aI1
aI34
aI32
aI28
aI27
aI23
aI22
aI21
aI18
aI16
aI15
aI11
aI9
aI4
aa(lp405
I1
aI0
aI2
aa(lp406
I1
aI2
aI0
aa(lp407
I6
aI7
aI22
aI8
aI12
aI0
aI1
aI19
aI3
aI9
aI2
aI20
aI21
aI15
aI18
aI5
aI4
aI13
aI24
aI16
aI17
aI23
aI10
aI11
aI14
aa(lp408
I1
aI0
aI6
aI11
aI7
aI10
aI12
aI5
aI8
aI2
aI3
aI4
aI9
aa(lp409
I2
aI17
aI14
aI12
aI21
aI8
aI3
aI13
aI4
aI5
aI22
aI20
aI19
aI16
aI9
aI15
aI11
aI7
aI1
aI10
aI6
aI0
aI18
aa(lp410
I3
aI11
aI13
aI17
aI9
aI22
aI23
aI5
aI16
aI10
aI19
aI2
aI20
aI6
aI8
aI21
aI1
aI12
aI7
aI0
aI14
aI4
aI18
aI15
aa(lp411
I9
aI7
aI6
aI5
aI4
aI0
aI8
aI3
aI2
aI1
aa(lp412
I2
aI0
aI1
aa(lp413
I27
aI22
aI15
aI28
aI14
aI26
aI19
aI18
aI12
aI4
aI3
aI1
aI24
aI13
aI16
aI5
aI25
aI2
aI0
aI23
aI20
aI8
aI6
aI17
aI11
aI21
aI10
aI9
aI7
aa(lp414
I0
aI20
aI2
aI18
aI9
aI25
aI19
aI27
aI11
aI4
aI24
aI5
aI30
aI15
aI16
aI29
aI14
aI21
aI28
aI22
aI12
aI3
aI17
aI23
aI1
aI7
aI13
aI6
aI26
aI8
aI10
aa(lp415
I1
aI0
aI5
aI2
aI3
aI7
aI6
aI8
aI4
aa(lp416
I10
aI19
aI11
aI18
aI4
aI17
aI6
aI5
aI1
aI14
aI13
aI16
aI8
aI2
aI9
aI3
aI12
aI0
aI7
aI15
aa(lp417
I1
aI0
aa(lp418
I1
aI8
aI10
aI7
aI5
aI4
aI6
aI9
aI0
aI3
aI2
aa(lp419
I1
aI7
aI5
aI3
aI6
aI2
aI8
aI4
aI0
aa(lp420
I4
aI6
aI2
aI7
aI5
aI3
aI1
aI0
aa(lp421
I2
aI1
aI0
aa(lp422
I6
aI3
aI1
aI7
aI4
aI5
aI0
aI2
aa(lp423
I4
aI0
aI1
aI2
aI3
aa(lp424
I9
aI7
aI1
aI10
aI6
aI0
aI8
aI5
aI3
aI2
aI4
aa(lp425
I19
aI9
aI8
aI17
aI18
aI12
aI20
aI21
aI11
aI16
aI5
aI1
aI6
aI7
aI15
aI10
aI2
aI3
aI0
aI13
aI4
aI14
aa(lp426
I1
aI2
aI4
aI3
aI0
aa(lp427
I1
aI0
aI3
aI2
aa(lp428
I3
aI7
aI1
aI9
aI8
aI4
aI5
aI10
aI6
aI0
aI11
aI12
aI2
aa(lp429
I0
aI7
aI13
aI17
aI8
aI16
aI9
aI14
aI10
aI6
aI5
aI3
aI15
aI1
aI2
aI12
aI4
aI11
aa(lp430
I0
aI16
aI27
aI7
aI18
aI8
aI6
aI19
aI12
aI15
aI28
aI21
aI25
aI20
aI11
aI24
aI17
aI2
aI23
aI10
aI14
aI26
aI13
aI3
aI5
aI9
aI22
aI1
aI4
aa(lp431
I0
aa(lp432
I1
aI0
aI5
aI6
aI2
aI7
aI4
aI3
aa(lp433
I0
aI4
aI6
aI1
aI7
aI5
aI3
aI2
aa(lp434
I1
aI6
aI10
aI9
aI2
aI13
aI4
aI5
aI7
aI0
aI12
aI11
aI3
aI8
aa(lp435
I0
aI1
aI5
aI4
aI2
aI3
aa(lp436
I1
aI0
aI6
aI10
aI18
aI26
aI3
aI21
aI2
aI17
aI15
aI8
aI28
aI4
aI27
aI23
aI22
aI19
aI11
aI14
aI29
aI5
aI13
aI24
aI7
aI16
aI25
aI12
aI9
aI20
aa(lp437
I1
aI4
aI7
aI5
aI6
aI3
aI0
aI2
aa(lp438
I0
aI6
aI7
aI4
aI1
aI5
aI3
aI2
aI10
aI8
aI9
aI11
aa(lp439
I17
aI19
aI11
aI2
aI8
aI4
aI6
aI20
aI10
aI13
aI15
aI18
aI26
aI23
aI25
aI21
aI7
aI24
aI9
aI0
aI14
aI1
aI16
aI12
aI3
aI22
aI5
aa(lp440
I27
aI16
aI22
aI8
aI19
aI28
aI24
aI30
aI11
aI5
aI4
aI10
aI20
aI29
aI7
aI2
aI23
aI14
aI3
aI0
aI25
aI21
aI17
aI13
aI9
aI15
aI26
aI18
aI1
aI12
aI6
aa(lp441
I1
aI0
aI4
aI2
aI3
aa(lp442
I13
aI10
aI3
aI14
aI16
aI9
aI4
aI1
aI17
aI7
aI6
aI12
aI0
aI11
aI15
aI8
aI5
aI2
aa(lp443
I10
aI3
aI4
aI12
aI11
aI1
aI13
aI6
aI0
aI8
aI7
aI5
aI2
aI9
aa(lp444
I7
aI10
aI9
aI8
aI3
aI0
aI1
aI11
aI12
aI5
aI4
aI13
aI6
aI2
aa(lp445
I0
aI3
aI4
aI1
aI2
aa(lp446
I11
aI13
aI1
aI4
aI9
aI2
aI3
aI0
aI8
aI6
aI12
aI10
aI7
aI14
aI5
aa(lp447
I0
aI3
aI2
aI1
aa(lp448
I17
aI0
aI9
aI3
aI12
aI13
aI11
aI7
aI5
aI16
aI8
aI15
aI14
aI10
aI2
aI6
aI18
aI4
aI1
aa(lp449
I4
aI0
aI1
aI2
aI3
aI5
aa(lp450
I4
aI1
aI0
aI5
aI3
aI2
aa(lp451
I0
aI6
aI3
aI9
aI7
aI5
aI2
aI1
aI4
aI8
aa(lp452
I1
aI2
aI4
aI3
aI0
aI5
aa(lp453
I12
aI15
aI1
aI16
aI4
aI8
aI2
aI18
aI11
aI0
aI3
aI6
aI9
aI17
aI7
aI5
aI13
aI10
aI14
aa(lp454
I6
aI18
aI10
aI16
aI19
aI22
aI0
aI7
aI23
aI20
aI14
aI9
aI4
aI1
aI21
aI17
aI13
aI15
aI12
aI11
aI8
aI5
aI3
aI2
aa(lp455
I1
aI3
aI0
aI4
aI14
aI7
aI5
aI21
aI17
aI9
aI13
aI12
aI6
aI16
aI15
aI11
aI8
aI10
aI22
aI20
aI19
aI2
aI18
aa(lp456
I2
aI4
aI1
aI5
aI6
aI10
aI8
aI11
aI14
aI9
aI12
aI0
aI13
aI7
aI3
aa(lp457
I0
aI32
aI48
aI11
aI17
aI35
aI16
aI12
aI22
aI24
aI10
aI50
aI29
aI9
aI3
aI15
aI8
aI19
aI5
aI42
aI1
aI49
aI27
aI45
aI33
aI54
aI52
aI7
aI40
aI51
aI44
aI41
aI53
aI39
aI30
aI14
aI57
aI13
aI25
aI6
aI20
aI2
aI56
aI23
aI37
aI26
aI21
aI4
aI46
aI31
aI38
aI18
aI34
aI47
aI36
aI28
aI55
aI43
aa(lp458
I2
aI23
aI21
aI16
aI27
aI26
aI8
aI3
aI0
aI25
aI7
aI24
aI11
aI19
aI28
aI18
aI15
aI20
aI14
aI6
aI4
aI17
aI12
aI1
aI29
aI10
aI9
aI5
aI22
aI13
aa(lp459
I2
aI8
aI6
aI9
aI0
aI10
aI1
aI7
aI5
aI4
aI3
aa(lp460
I3
aI8
aI2
aI7
aI4
aI5
aI0
aI9
aI1
aI6
aa(lp461
I4
aI8
aI3
aI11
aI15
aI14
aI0
aI12
aI13
aI9
aI7
aI5
aI2
aI1
aI16
aI10
aI6
aa(lp462
I27
aI12
aI22
aI15
aI19
aI8
aI11
aI21
aI28
aI13
aI7
aI4
aI9
aI24
aI23
aI1
aI17
aI25
aI20
aI16
aI18
aI26
aI29
aI10
aI6
aI0
aI5
aI2
aI3
aI14
aa(lp463
I30
aI4
aI18
aI0
aI26
aI15
aI1
aI31
aI32
aI19
aI21
aI12
aI6
aI2
aI23
aI14
aI7
aI13
aI46
aI43
aI22
aI17
aI42
aI41
aI40
aI34
aI29
aI11
aI5
aI3
aI45
aI44
aI38
aI37
aI36
aI35
aI33
aI28
aI27
aI25
aI24
aI20
aI16
aI10
aI9
aI8
aI47
aI39
aa(lp464
I9
aI3
aI2
aI1
aI7
aI8
aI6
aI4
aI0
aI5
aa(lp465
I3
aI2
aI4
aI7
aI8
aI1
aI10
aI11
aI6
aI5
aI9
aI0
aa(lp466
I4
aI3
aI0
aI2
aI1
aa(lp467
I10
aI0
aI8
aI9
aI7
aI3
aI13
aI11
aI4
aI1
aI12
aI6
aI5
aI2
aa(lp468
I1
aI0
aa(lp469
I5
aI0
aI7
aI8
aI11
aI2
aI6
aI9
aI12
aI10
aI3
aI1
aI4
aa(lp470
I14
aI0
aI18
aI17
aI11
aI12
aI9
aI6
aI13
aI16
aI10
aI3
aI2
aI15
aI4
aI7
aI5
aI1
aI8
aa(lp471
I0
aI1
aI2
aa(lp472
I2
aI3
aI0
aI1
aa(lp473
I2
aI1
aI4
aI3
aI0
aa(lp474
I2
aI3
aI5
aI6
aI4
aI1
aI8
aI7
aI0
aa(lp475
I6
aI0
aI14
aI5
aI12
aI3
aI1
aI11
aI10
aI9
aI8
aI4
aI7
aI2
aI13
aI15
aa(lp476
I10
aI1
aI0
aI9
aI7
aI5
aI6
aI11
aI12
aI4
aI3
aI2
aI8
aa(lp477
I1
aI6
aI9
aI3
aI10
aI7
aI4
aI0
aI5
aI8
aI2
aa(lp478
I12
aI0
aI20
aI29
aI14
aI32
aI7
aI33
aI8
aI16
aI28
aI17
aI19
aI35
aI18
aI13
aI25
aI4
aI27
aI5
aI1
aI2
aI21
aI24
aI9
aI30
aI26
aI15
aI6
aI3
aI22
aI23
aI11
aI34
aI10
aI31
aa(lp479
I4
aI5
aI2
aI0
aI1
aI3
aa(lp480
I4
aI11
aI15
aI3
aI5
aI6
aI2
aI12
aI1
aI14
aI7
aI0
aI8
aI22
aI9
aI10
aI19
aI17
aI16
aI13
aI21
aI18
aI20
aa(lp481
I1
aI3
aI0
aI2
aa(lp482
I13
aI21
aI3
aI15
aI12
aI5
aI4
aI18
aI0
aI22
aI10
aI8
aI23
aI17
aI6
aI11
aI16
aI1
aI19
aI2
aI9
aI20
aI7
aI14
aI24
aa(lp483
I1
aI3
aI0
aI6
aI7
aI4
aI2
aI5
aa(lp484
I8
aI14
aI0
aI3
aI10
aI4
aI1
aI9
aI12
aI5
aI7
aI2
aI11
aI13
aI6
aa(lp485
I1
aI5
aI0
aI6
aI23
aI21
aI19
aI17
aI12
aI11
aI10
aI16
aI9
aI25
aI24
aI22
aI15
aI14
aI8
aI4
aI2
aI20
aI3
aI18
aI13
aI7
aa(lp486
I10
aI7
aI9
aI3
aI8
aI4
aI6
aI1
aI2
aI0
aI5
aa(lp487
I0
aI4
aI2
aI1
aI3
aI6
aI5
aa(lp488
I9
aI10
aI5
aI7
aI0
aI4
aI2
aI1
aI8
aI6
aI3
aa(lp489
I6
aI15
aI1
aI11
aI4
aI2
aI17
aI9
aI16
aI7
aI3
aI21
aI14
aI8
aI23
aI18
aI12
aI20
aI10
aI22
aI0
aI5
aI19
aI13
aa(lp490
I3
aI2
aI8
aI10
aI1
aI7
aI5
aI0
aI4
aI9
aI6
aa(lp491
I1
aI2
aI4
aI0
aI3
aa(lp492
I11
aI10
aI6
aI5
aI4
aI13
aI1
aI18
aI9
aI8
aI21
aI14
aI15
aI16
aI3
aI20
aI7
aI17
aI2
aI12
aI19
aI0
aa(lp493
I27
aI22
aI21
aI32
aI29
aI16
aI17
aI26
aI20
aI2
aI30
aI23
aI24
aI11
aI13
aI0
aI1
aI33
aI4
aI7
aI10
aI12
aI18
aI31
aI9
aI15
aI14
aI25
aI8
aI6
aI5
aI19
aI28
aI3
aa(lp494
I2
aI0
aI6
aI3
aI5
aI9
aI7
aI1
aI4
aI8
aa(lp495
I16
aI0
aI13
aI12
aI15
aI10
aI9
aI4
aI2
aI14
aI8
aI11
aI3
aI17
aI1
aI6
aI7
aI5
aa(lp496
I0
aI15
aI6
aI3
aI14
aI10
aI4
aI9
aI16
aI2
aI5
aI8
aI12
aI13
aI1
aI7
aI11
aa(lp497
I3
aI1
aI2
aI0
aa(lp498
I5
aI17
aI0
aI3
aI1
aI14
aI11
aI10
aI16
aI4
aI13
aI12
aI8
aI15
aI2
aI7
aI6
aI9
aa(lp499
I5
aI4
aI3
aI7
aI2
aI6
aI1
aI0
aa(lp500
I8
aI27
aI13
aI17
aI19
aI5
aI26
aI31
aI28
aI30
aI1
aI10
aI12
aI6
aI3
aI25
aI7
aI32
aI14
aI34
aI21
aI18
aI11
aI16
aI9
aI0
aI33
aI29
aI24
aI22
aI23
aI2
aI35
aI4
aI20
aI15
aa(lp501
I13
aI16
aI2
aI0
aI15
aI10
aI14
aI11
aI3
aI17
aI12
aI7
aI5
aI6
aI8
aI1
aI9
aI4
aa(lp502
I9
aI3
aI4
aI5
aI11
aI6
aI7
aI2
aI8
aI10
aI17
aI15
aI13
aI12
aI1
aI18
aI14
aI16
aI0
aa(lp503
I1
aI0
aI2
aI13
aI6
aI9
aI8
aI12
aI10
aI5
aI7
aI3
aI4
aI11
aa(lp504
I28
aI21
aI24
aI22
aI15
aI10
aI26
aI11
aI32
aI2
aI27
aI1
aI37
aI13
aI23
aI9
aI18
aI16
aI30
aI6
aI12
aI0
aI36
aI34
aI33
aI25
aI20
aI17
aI7
aI5
aI4
aI29
aI38
aI35
aI31
aI19
aI14
aI8
aI3
aa(lp505
I8
aI1
aI5
aI2
aI3
aI0
aI7
aI6
aI4
aI9
aa(lp506
I2
aI5
aI1
aI0
aI3
aI4
aI7
aI10
aI9
aI8
aI6
aa(lp507
I4
aI6
aI2
aI1
aI10
aI9
aI7
aI8
aI0
aI5
aI3
aI11
aa(lp508
I13
aI8
aI15
aI4
aI20
aI18
aI26
aI21
aI12
aI1
aI6
aI9
aI27
aI17
aI16
aI19
aI14
aI24
aI23
aI22
aI11
aI7
aI0
aI5
aI2
aI10
aI3
aI25
aa(lp509
I12
aI0
aI3
aI8
aI1
aI15
aI7
aI16
aI2
aI19
aI18
aI13
aI4
aI14
aI11
aI5
aI9
aI6
aI17
aI20
aI10
aa(lp510
I1
aI8
aI6
aI3
aI9
aI4
aI5
aI7
aI2
aI0
aa(lp511
I2
aI6
aI7
aI1
aI8
aI4
aI3
aI5
aI0
aa(lp512
I8
aI10
aI9
aI0
aI4
aI11
aI2
aI7
aI5
aI3
aI6
aI1
aa(lp513
I0
aI19
aI13
aI2
aI23
aI11
aI12
aI6
aI22
aI25
aI21
aI3
aI10
aI14
aI17
aI7
aI5
aI15
aI8
aI4
aI24
aI20
aI18
aI16
aI1
aI9
aa(lp514
I1
aI0
aI3
aI2
aa(lp515
I14
aI16
aI17
aI1
aI7
aI5
aI6
aI3
aI9
aI11
aI19
aI15
aI12
aI2
aI4
aI20
aI13
aI0
aI18
aI8
aI10
aa(lp516
I6
aI1
aI12
aI5
aI7
aI11
aI4
aI2
aI10
aI8
aI9
aI0
aI3
aa(lp517
I6
aI8
aI14
aI21
aI28
aI23
aI17
aI20
aI3
aI19
aI11
aI4
aI5
aI26
aI18
aI29
aI16
aI0
aI13
aI27
aI2
aI25
aI31
aI10
aI22
aI1
aI7
aI15
aI32
aI12
aI24
aI9
aI30
aa(lp518
I13
aI3
aI0
aI1
aI10
aI8
aI6
aI4
aI12
aI11
aI9
aI7
aI5
aI2
aa(lp519
I5
aI10
aI7
aI8
aI3
aI2
aI0
aI4
aI6
aI9
aI1
aa(lp520
I3
aI15
aI1
aI0
aI2
aI18
aI16
aI6
aI5
aI4
aI13
aI23
aI22
aI19
aI17
aI14
aI12
aI11
aI10
aI8
aI7
aI9
aI21
aI20
aa(lp521
I0
aI16
aI11
aI6
aI2
aI18
aI10
aI15
aI8
aI1
aI17
aI12
aI9
aI7
aI4
aI3
aI14
aI13
aI5
aa(lp522
I10
aI4
aI2
aI7
aI11
aI16
aI24
aI0
aI3
aI5
aI12
aI8
aI23
aI13
aI9
aI19
aI15
aI21
aI17
aI20
aI1
aI14
aI22
aI6
aI18
aa(lp523
I2
aI0
aI1
aI3
aI4
aI5
aa(lp524
I6
aI0
aI13
aI12
aI9
aI5
aI11
aI10
aI8
aI7
aI4
aI3
aI2
aI1
aa(lp525
I1
aI5
aI3
aI6
aI4
aI2
aI0
aa(lp526
I1
aI2
aI0
aa(lp527
I1
aI0
aI2
aI3
aa(lp528
I0
aI1
aI2
aa(lp529
I2
aI18
aI3
aI23
aI19
aI7
aI20
aI12
aI0
aI15
aI14
aI11
aI5
aI1
aI6
aI22
aI17
aI16
aI13
aI4
aI21
aI9
aI8
aI10
aa(lp530
I0
aI1
aI9
aI6
aI10
aI7
aI2
aI8
aI5
aI4
aI3
aa(lp531
I5
aI0
aI2
aI7
aI8
aI3
aI4
aI9
aI15
aI11
aI1
aI12
aI6
aI13
aI14
aI10
aa(lp532
I3
aI4
aI8
aI2
aI0
aI1
aI5
aI7
aI6
aa(lp533
I12
aI7
aI2
aI11
aI22
aI5
aI20
aI0
aI3
aI21
aI13
aI4
aI23
aI1
aI15
aI19
aI14
aI10
aI9
aI8
aI6
aI18
aI16
aI17
aa(lp534
I12
aI9
aI11
aI10
aI8
aI7
aI5
aI4
aI3
aI2
aI6
aI1
aI0
aa(lp535
I2
aI1
aI4
aI0
aI8
aI7
aI5
aI3
aI6
aa(lp536
I14
aI0
aI3
aI8
aI17
aI16
aI5
aI18
aI9
aI11
aI15
aI10
aI13
aI12
aI7
aI6
aI1
aI2
aI4
aa(lp537
I2
aI4
aI0
aI6
aI5
aI1
aI7
aI3
aa(lp538
I42
aI24
aI11
aI19
aI43
aI6
aI45
aI29
aI39
aI17
aI16
aI0
aI2
aI21
aI35
aI12
aI5
aI4
aI46
aI1
aI40
aI31
aI41
aI32
aI18
aI25
aI23
aI26
aI20
aI44
aI33
aI22
aI7
aI38
aI15
aI28
aI13
aI37
aI14
aI10
aI8
aI36
aI30
aI34
aI27
aI9
aI3
aa(lp539
I8
aI7
aI9
aI5
aI3
aI10
aI4
aI6
aI0
aI1
aI2
aa(lp540
I23
aI0
aI3
aI12
aI9
aI28
aI25
aI27
aI26
aI29
aI19
aI17
aI14
aI30
aI21
aI5
aI22
aI15
aI13
aI24
aI1
aI10
aI2
aI20
aI18
aI16
aI7
aI6
aI8
aI11
aI4
aa(lp541
I1
aI0
aI7
aI3
aI5
aI4
aI2
aI6
aa(lp542
I10
aI5
aI2
aI1
aI9
aI11
aI6
aI4
aI0
aI8
aI7
aI3
aa(lp543
I16
aI12
aI10
aI7
aI1
aI6
aI13
aI2
aI14
aI11
aI15
aI9
aI8
aI5
aI4
aI18
aI3
aI25
aI21
aI23
aI0
aI17
aI19
aI24
aI22
aI20
aa(lp544
I3
aI10
aI8
aI9
aI7
aI13
aI15
aI4
aI0
aI11
aI5
aI16
aI12
aI6
aI14
aI1
aI2
aa(lp545
I1
aI2
aI0
aI9
aI7
aI5
aI10
aI8
aI6
aI11
aI4
aI3
aa(lp546
I2
aI1
aI0
aa(lp547
I4
aI1
aI9
aI10
aI6
aI0
aI8
aI5
aI2
aI7
aI3
aa(lp548
I7
aI9
aI10
aI8
aI5
aI6
aI4
aI14
aI13
aI3
aI12
aI2
aI11
aI0
aI1
aa(lp549
I3
aI10
aI8
aI11
aI12
aI15
aI7
aI1
aI14
aI13
aI2
aI6
aI5
aI4
aI0
aI9
aa(lp550
I0
aI2
aI3
aI8
aI4
aI1
aI6
aI11
aI9
aI7
aI12
aI5
aI10
aa(lp551
I7
aI3
aI15
aI13
aI0
aI10
aI6
aI17
aI11
aI2
aI4
aI14
aI16
aI12
aI9
aI1
aI8
aI5
aa(lp552
I6
aI13
aI14
aI12
aI17
aI10
aI2
aI18
aI19
aI16
aI11
aI7
aI5
aI3
aI15
aI9
aI8
aI4
aI1
aI0
aa(lp553
I31
aI18
aI21
aI12
aI11
aI19
aI33
aI13
aI10
aI30
aI29
aI27
aI3
aI20
aI7
aI9
aI1
aI15
aI14
aI8
aI4
aI16
aI25
aI22
aI5
aI26
aI28
aI2
aI0
aI32
aI17
aI23
aI24
aI6
aa(lp554
I3
aI2
aI9
aI8
aI10
aI0
aI1
aI6
aI4
aI5
aI7
aa(lp555
I18
aI6
aI1
aI9
aI0
aI8
aI2
aI25
aI14
aI7
aI13
aI10
aI26
aI12
aI17
aI11
aI22
aI20
aI23
aI3
aI19
aI21
aI16
aI24
aI27
aI15
aI4
aI5
aa(lp556
I0
aI5
aI4
aI1
aI23
aI3
aI24
aI17
aI8
aI22
aI18
aI13
aI20
aI12
aI7
aI21
aI16
aI19
aI15
aI14
aI10
aI11
aI9
aI2
aI6
aa(lp557
I0
aI3
aI1
aI2
aI4
aa(lp558
I2
aI5
aI6
aI1
aI0
aI8
aI4
aI7
aI3
aa(lp559
I9
aI7
aI1
aI0
aI8
aI5
aI3
aI6
aI4
aI2
aa(lp560
I11
aI6
aI7
aI8
aI3
aI10
aI12
aI2
aI0
aI1
aI9
aI5
aI4
aa(lp561
I3
aI7
aI5
aI4
aI2
aI1
aI6
aI0
aa(lp562
I6
aI3
aI2
aI8
aI7
aI1
aI0
aI5
aI4
aa(lp563
I1
aI0
aa(lp564
I9
aI10
aI5
aI4
aI7
aI6
aI3
aI20
aI2
aI21
aI15
aI1
aI18
aI14
aI16
aI13
aI17
aI11
aI19
aI0
aI8
aI12
aa(lp565
I1
aI0
aI2
aI12
aI14
aI13
aI7
aI10
aI3
aI5
aI11
aI4
aI6
aI9
aI16
aI8
aI15
aa(lp566
I2
aI1
aI0
aa(lp567
I0
aI5
aI3
aI7
aI2
aI8
aI9
aI1
aI6
aI4
aa(lp568
I1
aI0
aI4
aI5
aI6
aI3
aI7
aI2
aa(lp569
I2
aI1
aI3
aI4
aI5
aI0
aI7
aI8
aI9
aI12
aI10
aI11
aI6
aa(lp570
I1
aI2
aI8
aI6
aI5
aI3
aI7
aI0
aI4
aa(lp571
I4
aI0
aI3
aI2
aI1
aa(lp572
I6
aI12
aI2
aI3
aI15
aI14
aI10
aI17
aI13
aI11
aI4
aI9
aI0
aI7
aI5
aI1
aI16
aI8
aa(lp573
I7
aI6
aI3
aI5
aI4
aI2
aI0
aI1
aa(lp574
I12
aI16
aI15
aI11
aI0
aI19
aI6
aI18
aI14
aI1
aI5
aI8
aI9
aI4
aI13
aI10
aI2
aI17
aI7
aI3
aa(lp575
I0
aI8
aI14
aI7
aI10
aI16
aI2
aI12
aI6
aI17
aI13
aI11
aI15
aI1
aI3
aI9
aI4
aI5
aa(lp576
I1
aI0
aa(lp577
I4
aI5
aI0
aI2
aI3
aI1
aa(lp578
I5
aI11
aI2
aI9
aI7
aI10
aI6
aI3
aI1
aI8
aI0
aI4
aa(lp579
I0
aI1
aI3
aI4
aI2
aa(lp580
I1
aI7
aI2
aI0
aI5
aI14
aI8
aI6
aI4
aI13
aI16
aI15
aI12
aI9
aI11
aI10
aI3
aa(lp581
I25
aI5
aI3
aI34
aI16
aI8
aI22
aI31
aI7
aI23
aI26
aI10
aI2
aI33
aI21
aI17
aI9
aI32
aI6
aI35
aI29
aI15
aI1
aI28
aI0
aI11
aI24
aI13
aI14
aI20
aI36
aI12
aI27
aI18
aI4
aI30
aI19
aa(lp582
I14
aI7
aI2
aI18
aI22
aI11
aI3
aI19
aI16
aI5
aI6
aI21
aI20
aI1
aI10
aI13
aI4
aI9
aI17
aI15
aI12
aI8
aI0
aa(lp583
I0
aI11
aI17
aI15
aI1
aI5
aI19
aI3
aI2
aI12
aI10
aI14
aI20
aI18
aI13
aI8
aI9
aI6
aI7
aI4
aI16
aa(lp584
I2
aI4
aI1
aI11
aI18
aI9
aI29
aI24
aI10
aI33
aI26
aI19
aI3
aI17
aI15
aI8
aI0
aI20
aI30
aI25
aI7
aI27
aI23
aI12
aI28
aI14
aI32
aI21
aI31
aI22
aI13
aI5
aI16
aI6
aI34
aa(lp585
I5
aI0
aI11
aI3
aI9
aI2
aI10
aI7
aI1
aI4
aI20
aI15
aI12
aI18
aI16
aI19
aI14
aI8
aI6
aI13
aI17
aa(lp586
I4
aI1
aI5
aI7
aI3
aI8
aI6
aI2
aI0
aa(lp587
I0
aI3
aI2
aI1
aa(lp588
I0
aI1
aI2
aa(lp589
I14
aI11
aI2
aI0
aI12
aI1
aI13
aI5
aI16
aI8
aI4
aI18
aI7
aI17
aI10
aI3
aI15
aI9
aI6
aa(lp590
I4
aI2
aI3
aI5
aI1
aI0
aa(lp591
I5
aI0
aI1
aI3
aI6
aI4
aI2
aa(lp592
I0
aI1
aa(lp593
I10
aI3
aI5
aI4
aI1
aI0
aI9
aI6
aI8
aI7
aI2
aa(lp594
I25
aI8
aI24
aI7
aI12
aI27
aI9
aI28
aI15
aI20
aI16
aI11
aI19
aI18
aI13
aI10
aI5
aI22
aI23
aI17
aI14
aI26
aI4
aI3
aI21
aI6
aI0
aI2
aI1
aa(lp595
I7
aI8
aI3
aI1
aI0
aI12
aI11
aI2
aI6
aI9
aI5
aI13
aI10
aI4
aa(lp596
I16
aI12
aI1
aI14
aI7
aI13
aI5
aI9
aI6
aI15
aI4
aI2
aI0
aI11
aI3
aI8
aI10
aa(lp597
I2
aI0
aI1
aa(lp598
I6
aI1
aI14
aI8
aI0
aI7
aI2
aI10
aI5
aI3
aI13
aI12
aI11
aI9
aI4
aa(lp599
I0
aI5
aI1
aI7
aI4
aI2
aI3
aI8
aI6
aa(lp600
I5
aI9
aI4
aI2
aI0
aI10
aI3
aI8
aI7
aI6
aI1
aa(lp601
I1
aI0
aI17
aI12
aI14
aI15
aI16
aI7
aI6
aI10
aI13
aI4
aI11
aI9
aI8
aI5
aI3
aI2
aa(lp602
I4
aI6
aI3
aI5
aI12
aI13
aI1
aI0
aI8
aI9
aI11
aI2
aI7
aI10
aa(lp603
I0
aa(lp604
I17
aI8
aI4
aI12
aI15
aI13
aI9
aI5
aI3
aI2
aI1
aI0
aI16
aI14
aI10
aI7
aI6
aI11
aa(lp605
I1
aI0
aI2
aa(lp606
I4
aI2
aI1
aI0
aI7
aI6
aI5
aI3
aa(lp607
I1
aI5
aI3
aI0
aI4
aI2
aa(lp608
I0
aI1
aI3
aI4
aI2
aI5
aa(lp609
I0
aI1
aI3
aI4
aI5
aI2
aI6
aa(lp610
I6
aI1
aI0
aI2
aI3
aI5
aI4
aa(lp611
I7
aI0
aI5
aI9
aI12
aI10
aI2
aI3
aI8
aI13
aI11
aI1
aI4
aI6
aa(lp612
I13
aI3
aI18
aI14
aI12
aI17
aI7
aI4
aI10
aI5
aI16
aI11
aI9
aI0
aI2
aI8
aI15
aI6
aI1
aa(lp613
I5
aI2
aI1
aI0
aI7
aI3
aI6
aI4
aa(lp614
I1
aI0
aa(lp615
I6
aI2
aI5
aI4
aI0
aI3
aI1
aa(lp616
I35
aI0
aI17
aI21
aI24
aI5
aI15
aI13
aI3
aI22
aI37
aI31
aI11
aI29
aI25
aI32
aI20
aI8
aI10
aI28
aI14
aI26
aI16
aI23
aI30
aI27
aI18
aI34
aI1
aI12
aI4
aI2
aI33
aI7
aI36
aI19
aI9
aI6
aa(lp617
I0
aI5
aI6
aI4
aI7
aI3
aI1
aI2
aa(lp618
I16
aI5
aI9
aI17
aI12
aI3
aI1
aI4
aI18
aI11
aI14
aI10
aI8
aI6
aI2
aI13
aI7
aI0
aI15
aa(lp619
I7
aI36
aI15
aI12
aI3
aI14
aI26
aI1
aI11
aI28
aI37
aI35
aI0
aI33
aI31
aI21
aI23
aI38
aI10
aI42
aI24
aI13
aI5
aI16
aI39
aI46
aI32
aI9
aI17
aI34
aI41
aI2
aI19
aI29
aI22
aI25
aI27
aI40
aI20
aI18
aI4
aI44
aI30
aI8
aI45
aI43
aI6
aa(lp620
I2
aI1
aI0
aI5
aI4
aI3
aa(lp621
I2
aI1
aI8
aI0
aI9
aI6
aI3
aI10
aI4
aI7
aI5
aa(lp622
I13
aI6
aI19
aI9
aI2
aI20
aI22
aI3
aI0
aI28
aI26
aI16
aI11
aI4
aI10
aI1
aI30
aI27
aI25
aI18
aI21
aI14
aI12
aI15
aI29
aI24
aI7
aI17
aI5
aI23
aI8
aa(lp623
I11
aI6
aI3
aI0
aI9
aI8
aI5
aI7
aI10
aI4
aI1
aI2
aa(lp624
I2
aI1
aI5
aI4
aI0
aI3
aa(lp625
I1
aI0
aa(lp626
I14
aI8
aI11
aI1
aI5
aI2
aI12
aI7
aI10
aI9
aI4
aI3
aI0
aI13
aI6
aa(lp627
I6
aI3
aI0
aI8
aI7
aI4
aI2
aI5
aI9
aI1
aa(lp628
I2
aI1
aI6
aI4
aI3
aI7
aI5
aI9
aI8
aI0
aa(lp629
I16
aI34
aI4
aI26
aI17
aI19
aI33
aI32
aI0
aI31
aI24
aI1
aI28
aI39
aI37
aI30
aI27
aI14
aI11
aI38
aI15
aI22
aI10
aI7
aI23
aI40
aI36
aI42
aI41
aI35
aI12
aI21
aI8
aI20
aI25
aI18
aI2
aI29
aI13
aI9
aI3
aI6
aI5
aa(lp630
I8
aI6
aI3
aI11
aI4
aI2
aI0
aI7
aI1
aI10
aI9
aI5
aa(lp631
I4
aI2
aI1
aI0
aI3
aa(lp632
I7
aI6
aI4
aI10
aI5
aI9
aI0
aI2
aI3
aI1
aI8
aa(lp633
I1
aI3
aI2
aI0
aa(lp634
I21
aI14
aI10
aI3
aI27
aI0
aI8
aI9
aI24
aI22
aI20
aI13
aI4
aI1
aI11
aI5
aI19
aI15
aI12
aI23
aI18
aI26
aI17
aI2
aI7
aI25
aI16
aI6
aa(lp635
I8
aI11
aI19
aI22
aI24
aI28
aI13
aI29
aI3
aI20
aI17
aI27
aI26
aI1
aI16
aI23
aI9
aI7
aI5
aI30
aI25
aI18
aI10
aI31
aI21
aI14
aI4
aI2
aI0
aI12
aI15
aI6
aa(lp636
I7
aI8
aI3
aI13
aI17
aI19
aI9
aI21
aI16
aI1
aI20
aI18
aI12
aI5
aI15
aI14
aI4
aI23
aI10
aI22
aI6
aI11
aI0
aI2
aa(lp637
I11
aI13
aI9
aI6
aI2
aI5
aI10
aI8
aI12
aI4
aI0
aI3
aI14
aI7
aI1
aa(lp638
I6
aI21
aI7
aI5
aI19
aI10
aI16
aI3
aI17
aI4
aI0
aI8
aI2
aI18
aI14
aI13
aI9
aI1
aI20
aI12
aI15
aI11
aa(lp639
I2
aI1
aI4
aI3
aI0
aa(lp640
I1
aI21
aI16
aI11
aI6
aI0
aI18
aI20
aI14
aI12
aI7
aI2
aI9
aI17
aI15
aI13
aI10
aI5
aI19
aI3
aI22
aI8
aI4
aa(lp641
I3
aI2
aI6
aI7
aI5
aI9
aI8
aI10
aI4
aI1
aI0
aa(lp642
I0
aa(lp643
I4
aI28
aI3
aI25
aI19
aI31
aI17
aI20
aI18
aI29
aI24
aI21
aI30
aI2
aI26
aI8
aI23
aI6
aI9
aI11
aI5
aI32
aI1
aI7
aI15
aI27
aI22
aI0
aI14
aI12
aI16
aI10
aI13
aa(lp644
I5
aI11
aI6
aI7
aI3
aI4
aI21
aI10
aI9
aI19
aI0
aI15
aI18
aI20
aI14
aI13
aI16
aI1
aI8
aI17
aI12
aI2
aa(lp645
I4
aI2
aI5
aI11
aI10
aI0
aI6
aI7
aI8
aI9
aI3
aI1
aa(lp646
I2
aI1
aI0
aI3
aa(lp647
I4
aI10
aI8
aI12
aI13
aI0
aI2
aI7
aI11
aI1
aI5
aI9
aI3
aI6
aa(lp648
I0
aI13
aI2
aI37
aI5
aI38
aI42
aI23
aI45
aI10
aI15
aI41
aI39
aI16
aI44
aI33
aI30
aI34
aI31
aI43
aI20
aI4
aI27
aI11
aI26
aI12
aI28
aI36
aI32
aI21
aI29
aI48
aI40
aI25
aI46
aI14
aI19
aI1
aI24
aI17
aI8
aI47
aI22
aI7
aI6
aI18
aI9
aI3
aI35
aa(lp649
I18
aI7
aI19
aI11
aI5
aI13
aI14
aI9
aI2
aI8
aI6
aI16
aI12
aI17
aI4
aI10
aI3
aI15
aI1
aI0
aa(lp650
I3
aI0
aI2
aI1
aa(lp651
I0
aI1
aI3
aI2
aI5
aI4
aa(lp652
I3
aI5
aI8
aI10
aI0
aI12
aI11
aI13
aI4
aI7
aI1
aI6
aI2
aI9
aa(lp653
I12
aI11
aI3
aI0
aI10
aI9
aI8
aI7
aI6
aI5
aI4
aI2
aI1
aa(lp654
I4
aI5
aI3
aI0
aI1
aI2
aa(lp655
I0
aI9
aI12
aI11
aI10
aI8
aI6
aI7
aI5
aI13
aI14
aI2
aI3
aI4
aI16
aI15
aI1
aa(lp656
I11
aI0
aI12
aI15
aI17
aI1
aI18
aI13
aI10
aI26
aI16
aI14
aI24
aI22
aI20
aI8
aI7
aI6
aI5
aI4
aI3
aI2
aI25
aI23
aI21
aI19
aI9
aa(lp657
I0
aI7
aI23
aI17
aI12
aI8
aI21
aI20
aI16
aI14
aI6
aI10
aI18
aI1
aI2
aI15
aI4
aI19
aI11
aI5
aI22
aI13
aI3
aI9
aa(lp658
I14
aI4
aI7
aI1
aI8
aI9
aI6
aI10
aI11
aI13
aI16
aI5
aI15
aI2
aI0
aI12
aI3
aa(lp659
I8
aI7
aI3
aI6
aI5
aI4
aI2
aI9
aI1
aI0
aa(lp660
I1
aI7
aI5
aI3
aI4
aI8
aI9
aI6
aI0
aI2
aa(lp661
I14
aI3
aI1
aI17
aI13
aI4
aI2
aI5
aI0
aI16
aI8
aI15
aI12
aI6
aI9
aI18
aI7
aI20
aI11
aI10
aI19
aa(lp662
I5
aI3
aI4
aI2
aI1
aI0
aa(lp663
I4
aI2
aI1
aI7
aI3
aI0
aI6
aI5
aa(lp664
I4
aI0
aI5
aI1
aI6
aI3
aI2
aa(lp665
I2
aI5
aI0
aI1
aI6
aI3
aI4
aI7
aa(lp666
I2
aI3
aI1
aI0
aI4
aa(lp667
I0
aa(lp668
I0
aI2
aI1
aI3
aa(lp669
I0
aI1
aI5
aI3
aI12
aI9
aI14
aI11
aI6
aI7
aI2
aI13
aI4
aI10
aI8
aa(lp670
I6
aI1
aI3
aI4
aI0
aI5
aI2
aI7
aa(lp671
I9
aI3
aI0
aI7
aI5
aI8
aI4
aI2
aI6
aI1
aa(lp672
I7
aI8
aI12
aI0
aI27
aI26
aI23
aI2
aI14
aI13
aI1
aI18
aI15
aI20
aI10
aI24
aI11
aI28
aI21
aI17
aI9
aI25
aI16
aI29
aI3
aI6
aI4
aI22
aI5
aI19
aa(lp673
I23
aI25
aI26
aI8
aI27
aI22
aI13
aI16
aI21
aI15
aI9
aI30
aI32
aI6
aI3
aI18
aI31
aI33
aI5
aI4
aI2
aI20
aI1
aI24
aI29
aI12
aI10
aI0
aI11
aI19
aI7
aI14
aI17
aI28
aa(lp674
I8
aI0
aI10
aI12
aI11
aI7
aI6
aI1
aI3
aI14
aI13
aI9
aI5
aI2
aI4
aa(lp675
I0
aI4
aI2
aI3
aI6
aI7
aI5
aI1
aa(lp676
I0
aI1
aa(lp677
I0
aI2
aI1
aI3
aa(lp678
I5
aI6
aI4
aI2
aI1
aI0
aI9
aI3
aI10
aI8
aI7
aa(lp679
I2
aI1
aI3
aI6
aI5
aI0
aI4
aa(lp680
I7
aI10
aI4
aI8
aI1
aI14
aI6
aI9
aI2
aI0
aI11
aI13
aI15
aI16
aI3
aI12
aI5
aa(lp681
I8
aI7
aI0
aI5
aI6
aI3
aI1
aI10
aI9
aI2
aI4
aa(lp682
I1
aI0
aI2
aa(lp683
I17
aI16
aI12
aI2
aI13
aI10
aI9
aI5
aI3
aI1
aI0
aI15
aI14
aI11
aI8
aI7
aI6
aI4
aa(lp684
I3
aI1
aI2
aI0
aa(lp685
I4
aI5
aI3
aI0
aI1
aI6
aI2
aa(lp686
I3
aI2
aI0
aI1
aa(lp687
I28
aI16
aI14
aI25
aI1
aI23
aI2
aI34
aI22
aI32
aI4
aI31
aI39
aI30
aI20
aI9
aI24
aI18
aI38
aI41
aI12
aI10
aI11
aI19
aI40
aI6
aI36
aI0
aI35
aI21
aI29
aI7
aI13
aI5
aI26
aI3
aI15
aI8
aI17
aI27
aI33
aI37
aa(lp688
I0
aI33
aI14
aI9
aI8
aI12
aI22
aI30
aI17
aI31
aI29
aI28
aI27
aI21
aI15
aI32
aI23
aI13
aI19
aI6
aI5
aI18
aI36
aI25
aI16
aI26
aI2
aI10
aI4
aI20
aI7
aI24
aI1
aI11
aI3
aI35
aI34
aa(lp689
I0
aI4
aI15
aI24
aI13
aI25
aI11
aI9
aI8
aI18
aI20
aI14
aI7
aI23
aI22
aI21
aI12
aI6
aI1
aI19
aI17
aI2
aI16
aI5
aI10
aI26
aI3
aa(lp690
I8
aI5
aI4
aI13
aI0
aI9
aI1
aI14
aI2
aI16
aI12
aI7
aI15
aI11
aI6
aI10
aI3
aa(lp691
I1
aI0
aI4
aI3
aI5
aI2
aa(lp692
I13
aI11
aI4
aI3
aI14
aI12
aI15
aI1
aI5
aI2
aI16
aI10
aI6
aI7
aI9
aI0
aI8
aa(lp693
I9
aI0
aI11
aI6
aI5
aI1
aI2
aI7
aI10
aI4
aI12
aI8
aI3
aa(lp694
I23
aI28
aI17
aI2
aI9
aI6
aI12
aI24
aI13
aI1
aI5
aI15
aI25
aI7
aI3
aI27
aI18
aI11
aI0
aI26
aI21
aI20
aI16
aI4
aI19
aI8
aI14
aI22
aI10
aa(lp695
I7
aI10
aI2
aI0
aI11
aI12
aI3
aI5
aI13
aI6
aI9
aI1
aI4
aI8
aa(lp696
I0
aI1
aI3
aI6
aI5
aI8
aI7
aI4
aI2
aI9
aa(lp697
I14
aI6
aI18
aI16
aI4
aI11
aI5
aI17
aI9
aI13
aI3
aI10
aI12
aI8
aI19
aI15
aI2
aI7
aI1
aI0
aa(lp698
I12
aI9
aI4
aI16
aI5
aI14
aI17
aI7
aI13
aI2
aI8
aI3
aI18
aI1
aI15
aI10
aI11
aI0
aI6
aa(lp699
I0
aI3
aI2
aI1
aa(lp700
I4
aI0
aI7
aI8
aI6
aI12
aI5
aI3
aI2
aI1
aI11
aI9
aI10
aa(lp701
I4
aI6
aI2
aI8
aI14
aI11
aI12
aI7
aI13
aI5
aI10
aI9
aI3
aI15
aI1
aI17
aI16
aI0
aa(lp702
I1
aI18
aI7
aI0
aI14
aI20
aI2
aI16
aI5
aI15
aI25
aI17
aI27
aI12
aI4
aI8
aI13
aI19
aI23
aI9
aI21
aI10
aI22
aI3
aI26
aI24
aI11
aI6
aa(lp703
I37
aI6
aI5
aI32
aI39
aI33
aI28
aI1
aI60
aI15
aI18
aI2
aI59
aI26
aI49
aI43
aI62
aI53
aI58
aI27
aI0
aI66
aI51
aI3
aI8
aI50
aI35
aI23
aI11
aI34
aI63
aI64
aI25
aI20
aI36
aI24
aI22
aI29
aI9
aI21
aI14
aI12
aI40
aI56
aI31
aI13
aI61
aI52
aI45
aI17
aI30
aI16
aI7
aI4
aI47
aI41
aI38
aI48
aI46
aI19
aI44
aI65
aI57
aI55
aI10
aI54
aI42
aa(lp704
I3
aI14
aI5
aI22
aI1
aI0
aI7
aI26
aI20
aI16
aI11
aI4
aI19
aI13
aI12
aI23
aI15
aI9
aI27
aI21
aI17
aI10
aI24
aI8
aI25
aI18
aI2
aI6
aa(lp705
I1
aI20
aI13
aI9
aI11
aI19
aI15
aI14
aI21
aI4
aI18
aI17
aI16
aI5
aI6
aI3
aI7
aI12
aI10
aI8
aI2
aI0
aa(lp706
I18
aI28
aI0
aI29
aI5
aI22
aI4
aI26
aI27
aI25
aI12
aI11
aI16
aI2
aI19
aI14
aI21
aI10
aI7
aI9
aI13
aI23
aI6
aI1
aI15
aI24
aI3
aI8
aI20
aI17
aa(lp707
I6
aI5
aI4
aI3
aI1
aI0
aI2
aa(lp708
I5
aI6
aI7
aI4
aI0
aI2
aI1
aI8
aI3
aa(lp709
I0
aI7
aI1
aI3
aI8
aI4
aI5
aI2
aI6
aa(lp710
I1
aI3
aI4
aI0
aI5
aI2
aa(lp711
I0
aI5
aI4
aI1
aI2
aI3
aa(lp712
I3
aI0
aI1
aI2
aa(lp713
I5
aI1
aI0
aI4
aI6
aI2
aI7
aI3
aa(lp714
I3
aI4
aI1
aI2
aI0
aa(lp715
I27
aI23
aI18
aI30
aI9
aI15
aI12
aI16
aI5
aI29
aI6
aI8
aI24
aI31
aI33
aI19
aI0
aI17
aI14
aI25
aI3
aI20
aI10
aI22
aI11
aI36
aI26
aI28
aI4
aI7
aI21
aI32
aI13
aI35
aI2
aI1
aI34
aa(lp716
I3
aI2
aI1
aI4
aI0
aa(lp717
I0
aI1
aI3
aI2
aa(lp718
I1
aI0
aa(lp719
I0
aI3
aI4
aI2
aI1
aa(lp720
I7
aI3
aI12
aI0
aI4
aI15
aI11
aI14
aI9
aI2
aI1
aI13
aI6
aI10
aI8
aI5
aa(lp721
I4
aI11
aI12
aI26
aI24
aI19
aI3
aI25
aI20
aI5
aI9
aI23
aI22
aI18
aI17
aI15
aI10
aI1
aI8
aI6
aI21
aI16
aI7
aI14
aI13
aI0
aI2
aa(lp722
I3
aI4
aI0
aI5
aI1
aI2
aa(lp723
I1
aI2
aI0
aa(lp724
I1
aI8
aI7
aI6
aI5
aI4
aI3
aI2
aI0
aa(lp725
I10
aI9
aI8
aI7
aI6
aI5
aI4
aI3
aI2
aI1
aI0
aa(lp726
I0
aI2
aI36
aI26
aI10
aI48
aI31
aI6
aI49
aI39
aI4
aI1
aI33
aI3
aI21
aI23
aI30
aI18
aI12
aI45
aI32
aI19
aI7
aI44
aI11
aI37
aI35
aI22
aI8
aI5
aI40
aI13
aI42
aI24
aI14
aI47
aI17
aI25
aI9
aI41
aI16
aI38
aI46
aI15
aI43
aI28
aI27
aI20
aI34
aI29
aa(lp727
I1
aI4
aI2
aI3
aI0
aa(lp728
I14
aI6
aI0
aI16
aI9
aI13
aI7
aI10
aI12
aI15
aI2
aI5
aI4
aI1
aI11
aI3
aI8
aa(lp729
I9
aI8
aI4
aI11
aI7
aI3
aI2
aI5
aI10
aI6
aI0
aI1
aa(lp730
I6
aI0
aI1
aI7
aI4
aI3
aI2
aI8
aI5
aa(lp731
I1
aI2
aI0
aa(lp732
I4
aI5
aI8
aI6
aI3
aI1
aI7
aI0
aI2
aa(lp733
I1
aI7
aI0
aI2
aI3
aI4
aI9
aI10
aI5
aI12
aI8
aI11
aI6
aa(lp734
I3
aI14
aI17
aI13
aI30
aI15
aI4
aI1
aI23
aI12
aI8
aI2
aI22
aI19
aI7
aI27
aI25
aI0
aI16
aI18
aI29
aI26
aI5
aI10
aI11
aI20
aI9
aI24
aI28
aI6
aI21
aa(lp735
I3
aI2
aI0
aI1
aa(lp736
I5
aI0
aI2
aI1
aI4
aI3
aa(lp737
I5
aI8
aI4
aI14
aI6
aI10
aI15
aI1
aI13
aI3
aI11
aI9
aI7
aI0
aI2
aI12
aa(lp738
I10
aI7
aI13
aI12
aI11
aI9
aI8
aI5
aI4
aI3
aI6
aI0
aI2
aI1
aa(lp739
I5
aI3
aI8
aI7
aI1
aI4
aI0
aI6
aI2
aa(lp740
I1
aI12
aI3
aI7
aI2
aI9
aI5
aI15
aI13
aI11
aI0
aI6
aI10
aI8
aI14
aI4
aa(lp741
I1
aI6
aI2
aI4
aI0
aI10
aI9
aI5
aI7
aI8
aI3
aa(lp742
I1
aI5
aI2
aI3
aI0
aI4
aa(lp743
I0
aI1
aa(lp744
I7
aI8
aI5
aI0
aI9
aI6
aI4
aI2
aI3
aI1
aa(lp745
I6
aI9
aI7
aI12
aI4
aI2
aI10
aI8
aI1
aI11
aI5
aI0
aI3
aa(lp746
I7
aI0
aI4
aI2
aI1
aI6
aI5
aI3
aa(lp747
I6
aI4
aI1
aI3
aI5
aI2
aI7
aI0
aa(lp748
I0
aI13
aI21
aI6
aI27
aI20
aI8
aI22
aI24
aI19
aI4
aI25
aI10
aI15
aI3
aI1
aI29
aI14
aI2
aI18
aI7
aI9
aI5
aI26
aI23
aI17
aI11
aI12
aI28
aI16
aa(lp749
I1
aI25
aI7
aI32
aI11
aI10
aI0
aI47
aI8
aI15
aI28
aI20
aI18
aI42
aI43
aI3
aI16
aI5
aI4
aI33
aI29
aI19
aI23
aI40
aI27
aI21
aI46
aI22
aI37
aI30
aI35
aI38
aI12
aI2
aI44
aI39
aI6
aI45
aI34
aI13
aI31
aI24
aI36
aI41
aI9
aI14
aI17
aI26
aa(lp750
I5
aI7
aI3
aI4
aI17
aI14
aI13
aI12
aI0
aI16
aI6
aI15
aI2
aI11
aI1
aI10
aI8
aI9
aa(lp751
I2
aI9
aI4
aI19
aI15
aI0
aI1
aI7
aI11
aI14
aI8
aI5
aI12
aI20
aI16
aI17
aI18
aI6
aI3
aI13
aI10
aa(lp752
I16
aI11
aI2
aI1
aI0
aI6
aI3
aI5
aI4
aI13
aI10
aI9
aI12
aI8
aI7
aI15
aI14
aa(lp753
I6
aI2
aI1
aI9
aI11
aI0
aI12
aI3
aI14
aI13
aI15
aI5
aI10
aI8
aI7
aI4
aa(lp754
I28
aI0
aI19
aI24
aI26
aI2
aI23
aI3
aI14
aI4
aI29
aI25
aI1
aI16
aI9
aI7
aI17
aI20
aI6
aI21
aI5
aI13
aI10
aI30
aI18
aI15
aI8
aI27
aI12
aI11
aI22
aa(lp755
I6
aI15
aI1
aI7
aI14
aI3
aI16
aI5
aI10
aI13
aI0
aI12
aI8
aI4
aI11
aI2
aI9
aa(lp756
I1
aI2
aI5
aI6
aI3
aI0
aI7
aI4
aa(lp757
I5
aI6
aI3
aI1
aI0
aI2
aI4
aa(lp758
I3
aI10
aI27
aI19
aI15
aI0
aI8
aI29
aI17
aI11
aI2
aI13
aI18
aI7
aI25
aI16
aI9
aI23
aI4
aI22
aI28
aI21
aI5
aI24
aI26
aI20
aI6
aI12
aI1
aI14
aa(lp759
I8
aI0
aI10
aI20
aI6
aI5
aI16
aI7
aI1
aI24
aI23
aI12
aI22
aI17
aI9
aI2
aI11
aI4
aI21
aI19
aI3
aI18
aI15
aI13
aI14
aa(lp760
I0
aI1
aI14
aI6
aI5
aI10
aI13
aI8
aI9
aI3
aI12
aI11
aI7
aI4
aI2
aa(lp761
I21
aI17
aI11
aI18
aI8
aI12
aI9
aI15
aI1
aI22
aI7
aI24
aI16
aI14
aI2
aI23
aI5
aI0
aI10
aI19
aI4
aI6
aI13
aI3
aI20
aa(lp762
I4
aI9
aI3
aI6
aI8
aI5
aI1
aI7
aI0
aI2
aI10
aa(lp763
I3
aI4
aI0
aI7
aI6
aI5
aI1
aI2
aa(lp764
I2
aI0
aI4
aI3
aI1
aa(lp765
I0
aI3
aI2
aI4
aI1
aa(lp766
I12
aI5
aI8
aI3
aI9
aI11
aI13
aI0
aI10
aI6
aI14
aI7
aI2
aI4
aI1
aa(lp767
I2
aI4
aI6
aI1
aI12
aI7
aI5
aI3
aI0
aI8
aI13
aI11
aI10
aI9
aa(lp768
I12
aI2
aI4
aI0
aI6
aI1
aI5
aI10
aI11
aI3
aI8
aI9
aI7
aa(lp769
I3
aI1
aI4
aI2
aI0
aa(lp770
I0
aI10
aI31
aI25
aI17
aI33
aI18
aI22
aI36
aI1
aI15
aI7
aI30
aI13
aI20
aI28
aI23
aI2
aI27
aI37
aI11
aI8
aI32
aI3
aI26
aI5
aI39
aI14
aI9
aI12
aI4
aI21
aI29
aI19
aI38
aI6
aI34
aI35
aI24
aI16
aa(lp771
I8
aI31
aI22
aI23
aI21
aI17
aI20
aI18
aI28
aI19
aI9
aI13
aI27
aI5
aI1
aI26
aI0
aI2
aI4
aI15
aI14
aI30
aI7
aI3
aI25
aI24
aI12
aI29
aI11
aI6
aI10
aI16
aa(lp772
I14
aI12
aI7
aI13
aI6
aI5
aI3
aI10
aI8
aI21
aI20
aI15
aI18
aI9
aI19
aI0
aI16
aI17
aI11
aI2
aI1
aI4
aa(lp773
I0
aa(lp774
I0
aI16
aI14
aI18
aI20
aI17
aI9
aI8
aI11
aI6
aI19
aI10
aI25
aI13
aI7
aI5
aI4
aI24
aI15
aI3
aI21
aI2
aI22
aI23
aI1
aI12
aa(lp775
I0
aI4
aI7
aI1
aI2
aI10
aI6
aI9
aI8
aI5
aI11
aI3
aa(lp776
I3
aI17
aI6
aI8
aI15
aI18
aI2
aI7
aI11
aI16
aI5
aI21
aI13
aI20
aI9
aI4
aI19
aI10
aI0
aI24
aI14
aI12
aI23
aI22
aI1
aa(lp777
I3
aI5
aI1
aI6
aI2
aI0
aI4
aa(lp778
I5
aI4
aI3
aI8
aI6
aI0
aI1
aI2
aI10
aI7
aI11
aI9
aa(lp779
I18
aI5
aI6
aI11
aI20
aI4
aI21
aI3
aI22
aI12
aI2
aI13
aI24
aI15
aI19
aI7
aI23
aI16
aI14
aI8
aI17
aI10
aI1
aI0
aI9
aa(lp780
I1
aI2
aI3
aI0
aI5
aI4
aa(lp781
I32
aI22
aI24
aI23
aI30
aI6
aI8
aI2
aI15
aI16
aI1
aI9
aI5
aI26
aI19
aI14
aI13
aI21
aI7
aI0
aI25
aI10
aI28
aI27
aI31
aI18
aI17
aI11
aI20
aI4
aI12
aI29
aI3
aa(lp782
I0
aI1
aa(lp783
I4
aI5
aI0
aI1
aI3
aI2
aa(lp784
I9
aI4
aI11
aI3
aI14
aI2
aI13
aI7
aI1
aI5
aI8
aI12
aI0
aI10
aI6
aa(lp785
I1
aI3
aI16
aI8
aI6
aI17
aI0
aI7
aI4
aI22
aI5
aI10
aI2
aI20
aI14
aI12
aI24
aI13
aI23
aI21
aI11
aI15
aI18
aI9
aI19
aa(lp786
I5
aI3
aI4
aI1
aI0
aI6
aI7
aI2
aa(lp787
I2
aI0
aI10
aI9
aI6
aI4
aI8
aI7
aI5
aI3
aI1
aa(lp788
I0
aI1
aI2
aI3
aa(lp789
I1
aI12
aI5
aI3
aI6
aI4
aI2
aI11
aI7
aI8
aI10
aI0
aI9
aa(lp790
I5
aI3
aI9
aI11
aI1
aI8
aI4
aI2
aI6
aI10
aI0
aI7
aa(lp791
I1
aI2
aI4
aI6
aI3
aI5
aI0
aa(lp792
I20
aI19
aI0
aI2
aI5
aI24
aI6
aI22
aI16
aI25
aI23
aI7
aI13
aI11
aI4
aI9
aI3
aI21
aI26
aI1
aI12
aI10
aI17
aI8
aI15
aI18
aI14
aa(lp793
I2
aI6
aI12
aI1
aI3
aI7
aI4
aI13
aI9
aI5
aI11
aI10
aI0
aI8
aa(lp794
I17
aI0
aI5
aI6
aI20
aI9
aI18
aI3
aI11
aI16
aI12
aI23
aI19
aI24
aI1
aI8
aI7
aI4
aI21
aI14
aI10
aI2
aI15
aI22
aI13
aa(lp795
I0
aI1
aa(lp796
I1
aI0
aa(lp797
I10
aI6
aI9
aI11
aI3
aI12
aI14
aI16
aI2
aI8
aI1
aI5
aI7
aI4
aI0
aI15
aI13
aa(lp798
I4
aI2
aI3
aI0
aI5
aI1
aI6
aI7
aa(lp799
I7
aI8
aI9
aI10
aI11
aI2
aI5
aI4
aI3
aI1
aI6
aI0
aa(lp800
I0
aI2
aI3
aI8
aI1
aI7
aI6
aI5
aI4
aa(lp801
I2
aI1
aI8
aI9
aI7
aI0
aI5
aI4
aI6
aI3
aa(lp802
I0
aI2
aI1
aa(lp803
I4
aI3
aI0
aI2
aI1
aa(lp804
I5
aI11
aI20
aI18
aI14
aI8
aI2
aI19
aI0
aI16
aI4
aI12
aI21
aI17
aI6
aI3
aI7
aI10
aI15
aI1
aI13
aI9
aa(lp805
I6
aI11
aI5
aI2
aI1
aI4
aI12
aI7
aI0
aI8
aI3
aI10
aI9
aa(lp806
I0
aI6
aI10
aI7
aI1
aI9
aI11
aI2
aI5
aI8
aI4
aI3
aa(lp807
I16
aI23
aI43
aI32
aI41
aI13
aI24
aI26
aI10
aI45
aI18
aI42
aI49
aI28
aI39
aI27
aI3
aI29
aI35
aI9
aI11
aI44
aI36
aI14
aI0
aI30
aI51
aI33
aI54
aI31
aI12
aI21
aI5
aI20
aI48
aI17
aI2
aI40
aI25
aI19
aI52
aI53
aI1
aI46
aI38
aI34
aI37
aI4
aI15
aI7
aI6
aI50
aI47
aI8
aI22
aa(lp808
I0
aI2
aI1
aa(lp809
I1
aI2
aI3
aI5
aI4
aI0
aa(lp810
I15
aI10
aI4
aI22
aI12
aI13
aI9
aI20
aI2
aI24
aI14
aI11
aI3
aI21
aI16
aI8
aI6
aI19
aI0
aI17
aI23
aI18
aI7
aI5
aI1
aa(lp811
I9
aI14
aI13
aI5
aI10
aI11
aI12
aI15
aI6
aI1
aI17
aI8
aI3
aI4
aI7
aI0
aI16
aI2
aa(lp812
I11
aI8
aI2
aI5
aI3
aI10
aI9
aI7
aI1
aI6
aI4
aI0
aa(lp813
I2
aI6
aI5
aI4
aI1
aI3
aI9
aI0
aI8
aI7
aa(lp814
I6
aI2
aI10
aI0
aI5
aI13
aI4
aI9
aI14
aI11
aI15
aI12
aI1
aI7
aI8
aI3
aa(lp815
I8
aI1
aI10
aI4
aI9
aI7
aI6
aI11
aI2
aI12
aI5
aI0
aI3
aa(lp816
I12
aI13
aI1
aI6
aI2
aI10
aI4
aI11
aI3
aI14
aI0
aI5
aI9
aI7
aI8
aa(lp817
I33
aI40
aI10
aI15
aI4
aI31
aI17
aI36
aI64
aI0
aI44
aI13
aI52
aI49
aI22
aI14
aI5
aI18
aI62
aI47
aI51
aI68
aI48
aI58
aI42
aI66
aI20
aI19
aI25
aI2
aI12
aI21
aI50
aI38
aI56
aI11
aI45
aI65
aI34
aI61
aI53
aI26
aI3
aI7
aI46
aI23
aI30
aI27
aI67
aI16
aI69
aI9
aI41
aI6
aI24
aI57
aI32
aI35
aI29
aI1
aI28
aI63
aI59
aI70
aI43
aI37
aI54
aI55
aI8
aI60
aI39
aa(lp818
I2
aI3
aI1
aI0
aI5
aI4
aa(lp819
I5
aI0
aI2
aI10
aI4
aI6
aI11
aI7
aI1
aI9
aI8
aI3
aa(lp820
I1
aI2
aI0
aa(lp821
I3
aI5
aI17
aI12
aI2
aI10
aI16
aI4
aI23
aI0
aI13
aI20
aI11
aI18
aI15
aI22
aI8
aI1
aI24
aI19
aI21
aI9
aI6
aI7
aI14
aa(lp822
I2
aI1
aI0
aI3
aI6
aI7
aI4
aI5
aa(lp823
I0
aI1
aa(lp824
I18
aI12
aI23
aI9
aI25
aI16
aI4
aI3
aI1
aI11
aI10
aI6
aI20
aI14
aI13
aI5
aI2
aI24
aI22
aI21
aI19
aI17
aI15
aI8
aI7
aI0
aa(lp825
I9
aI8
aI0
aI5
aI1
aI3
aI2
aI4
aI7
aI6
aa(lp826
I1
aI14
aI30
aI4
aI16
aI32
aI33
aI17
aI3
aI36
aI24
aI6
aI37
aI35
aI29
aI28
aI27
aI12
aI8
aI18
aI9
aI23
aI19
aI26
aI25
aI15
aI10
aI7
aI5
aI22
aI13
aI34
aI21
aI2
aI31
aI20
aI11
aI0
aa(lp827
I1
aI0
aI2
aI4
aI5
aI3
aa(lp828
I5
aI13
aI1
aI12
aI9
aI8
aI3
aI2
aI4
aI7
aI14
aI6
aI10
aI11
aI0
aa(lp829
I3
aI25
aI0
aI28
aI21
aI11
aI23
aI9
aI19
aI10
aI8
aI5
aI18
aI27
aI26
aI12
aI13
aI14
aI16
aI17
aI20
aI15
aI29
aI30
aI24
aI6
aI1
aI22
aI4
aI7
aI2
aa(lp830
I11
aI0
aI5
aI3
aI1
aI4
aI7
aI9
aI6
aI2
aI10
aI8
aa(lp831
I1
aI0
aI3
aI5
aI4
aI2
aa(lp832
I0
aI1
aI15
aI11
aI5
aI20
aI9
aI12
aI7
aI4
aI19
aI13
aI21
aI16
aI14
aI6
aI17
aI10
aI3
aI18
aI2
aI22
aI8
aa(lp833
I0
aI34
aI20
aI22
aI5
aI31
aI4
aI32
aI12
aI30
aI2
aI21
aI17
aI1
aI36
aI15
aI23
aI18
aI19
aI35
aI29
aI16
aI26
aI9
aI28
aI7
aI27
aI10
aI13
aI8
aI24
aI25
aI33
aI11
aI14
aI3
aI6
aa(lp834
I2
aI7
aI11
aI0
aI5
aI6
aI4
aI12
aI3
aI1
aI8
aI9
aI10
aa(lp835
I1
aI9
aI4
aI5
aI10
aI11
aI6
aI8
aI0
aI7
aI2
aI3
aa(lp836
I0
aI2
aI1
aI3
aa(lp837
I0
aI1
aI2
aI4
aI3
aa(lp838
I5
aI3
aI1
aI0
aI4
aI2
aa(lp839
I1
aI3
aI2
aI5
aI0
aI4
aa(lp840
I1
aI3
aI4
aI8
aI2
aI11
aI7
aI13
aI9
aI6
aI0
aI10
aI12
aI5
aa(lp841
I0
aI11
aI10
aI5
aI3
aI12
aI9
aI8
aI2
aI4
aI7
aI6
aI1
aa(lp842
I10
aI9
aI8
aI6
aI5
aI4
aI2
aI1
aI0
aI7
aI3
aa(lp843
I0
aI4
aI5
aI6
aI3
aI2
aI1
aa(lp844
I0
aI4
aI2
aI1
aI3
aa(lp845
I0
aI1
aI3
aI2
aa(lp846
I12
aI11
aI7
aI9
aI10
aI4
aI5
aI8
aI1
aI3
aI6
aI2
aI0
aa(lp847
I10
aI4
aI17
aI5
aI20
aI3
aI6
aI26
aI21
aI19
aI14
aI12
aI8
aI2
aI22
aI9
aI7
aI15
aI1
aI25
aI24
aI23
aI16
aI11
aI0
aI18
aI13
aa(lp848
I8
aI2
aI17
aI3
aI14
aI11
aI7
aI15
aI9
aI16
aI13
aI10
aI4
aI0
aI5
aI1
aI6
aI12
aa(lp849
I9
aI15
aI10
aI14
aI17
aI13
aI16
aI11
aI0
aI12
aI5
aI6
aI19
aI1
aI4
aI20
aI18
aI2
aI7
aI3
aI8
aa(lp850
I3
aI4
aI5
aI7
aI10
aI12
aI11
aI6
aI2
aI0
aI9
aI1
aI13
aI8
aa(lp851
I1
aI6
aI2
aI3
aI4
aI5
aI0
aa(lp852
I5
aI10
aI7
aI4
aI12
aI8
aI15
aI9
aI1
aI16
aI0
aI3
aI2
aI14
aI6
aI17
aI13
aI11
aa(lp853
I7
aI18
aI0
aI24
aI25
aI5
aI27
aI1
aI28
aI30
aI12
aI8
aI6
aI10
aI31
aI13
aI15
aI4
aI9
aI21
aI19
aI20
aI3
aI16
aI17
aI26
aI29
aI32
aI22
aI2
aI23
aI11
aI14
aa(lp854
I3
aI31
aI38
aI16
aI35
aI15
aI18
aI17
aI5
aI23
aI20
aI11
aI8
aI7
aI24
aI2
aI28
aI6
aI33
aI36
aI25
aI10
aI21
aI19
aI34
aI12
aI9
aI22
aI29
aI37
aI32
aI0
aI1
aI14
aI26
aI4
aI13
aI30
aI27
aa(lp855
I1
aI0
aI7
aI6
aI8
aI4
aI12
aI9
aI11
aI3
aI10
aI5
aI2
aa(lp856
I33
aI16
aI43
aI34
aI2
aI18
aI6
aI41
aI45
aI35
aI30
aI26
aI20
aI23
aI14
aI39
aI12
aI42
aI40
aI28
aI1
aI24
aI7
aI19
aI32
aI31
aI37
aI38
aI36
aI22
aI13
aI8
aI17
aI4
aI21
aI46
aI29
aI25
aI15
aI10
aI9
aI27
aI11
aI44
aI5
aI3
aI0
aa(lp857
I3
aI0
aI5
aI4
aI2
aI6
aI1
aa(lp858
I3
aI0
aI2
aI1
aa(lp859
I1
aI3
aI4
aI11
aI7
aI10
aI6
aI0
aI8
aI2
aI5
aI9
aa(lp860
I1
aI2
aI0
aa(lp861
I23
aI15
aI1
aI22
aI5
aI10
aI21
aI24
aI27
aI4
aI28
aI3
aI13
aI9
aI26
aI6
aI29
aI11
aI34
aI14
aI33
aI17
aI12
aI2
aI16
aI8
aI7
aI30
aI32
aI20
aI19
aI31
aI25
aI18
aI0
aa(lp862
I1
aI0
aa(lp863
I11
aI5
aI1
aI9
aI13
aI6
aI3
aI4
aI0
aI7
aI10
aI12
aI8
aI2
aa(lp864
I0
aI2
aI10
aI7
aI4
aI11
aI8
aI5
aI12
aI9
aI6
aI3
aI1
aa(lp865
I0
aI11
aI9
aI6
aI2
aI10
aI3
aI1
aI4
aI7
aI5
aI8
aa(lp866
I18
aI2
aI0
aI1
aI15
aI21
aI12
aI9
aI4
aI8
aI14
aI17
aI13
aI10
aI3
aI6
aI20
aI7
aI5
aI19
aI16
aI11
aa(lp867
I4
aI9
aI3
aI1
aI2
aI10
aI0
aI7
aI6
aI5
aI12
aI11
aI8
aa(lp868
I0
aI21
aI7
aI6
aI3
aI2
aI12
aI9
aI18
aI1
aI26
aI17
aI4
aI25
aI22
aI8
aI5
aI13
aI24
aI23
aI15
aI14
aI16
aI20
aI19
aI10
aI11
aa(lp869
I6
aI0
aI5
aI7
aI8
aI3
aI1
aI2
aI9
aI4
aa(lp870
I2
aI5
aI7
aI6
aI10
aI9
aI8
aI4
aI1
aI0
aI3
aa(lp871
I0
aI3
aI1
aI2
aa(lp872
I7
aI8
aI13
aI4
aI2
aI12
aI1
aI10
aI0
aI11
aI6
aI3
aI5
aI9
aa(lp873
I5
aI1
aI0
aI8
aI3
aI9
aI7
aI6
aI2
aI4
aI10
aa(lp874
I14
aI7
aI13
aI15
aI17
aI30
aI9
aI8
aI0
aI20
aI3
aI6
aI32
aI11
aI4
aI5
aI29
aI22
aI34
aI12
aI36
aI31
aI16
aI10
aI25
aI28
aI33
aI27
aI26
aI21
aI18
aI2
aI1
aI35
aI24
aI23
aI19
aa(lp875
I13
aI16
aI4
aI6
aI1
aI15
aI0
aI5
aI7
aI12
aI17
aI14
aI11
aI9
aI8
aI3
aI2
aI10
aa(lp876
I0
aa(lp877
I40
aI18
aI35
aI2
aI17
aI34
aI32
aI45
aI44
aI14
aI43
aI3
aI29
aI19
aI4
aI30
aI6
aI41
aI20
aI16
aI31
aI12
aI38
aI22
aI28
aI1
aI26
aI36
aI21
aI13
aI10
aI39
aI7
aI42
aI37
aI25
aI24
aI23
aI15
aI11
aI8
aI27
aI9
aI46
aI33
aI0
aI5
aa(lp878
I0
aa(lp879
I13
aI14
aI10
aI3
aI1
aI11
aI7
aI0
aI12
aI9
aI5
aI2
aI6
aI8
aI4
aa(lp880
I32
aI22
aI15
aI13
aI28
aI21
aI14
aI7
aI25
aI9
aI4
aI23
aI19
aI16
aI11
aI24
aI6
aI29
aI17
aI1
aI10
aI12
aI5
aI30
aI26
aI0
aI20
aI18
aI8
aI27
aI33
aI3
aI31
aI2
aa(lp881
I2
aI12
aI13
aI14
aI20
aI18
aI19
aI5
aI21
aI10
aI8
aI15
aI17
aI1
aI0
aI23
aI22
aI16
aI7
aI6
aI4
aI9
aI24
aI3
aI11
aa(lp882
I12
aI14
aI9
aI8
aI2
aI11
aI10
aI4
aI13
aI15
aI6
aI0
aI3
aI7
aI5
aI1
aa(lp883
I13
aI0
aI12
aI8
aI6
aI11
aI3
aI7
aI4
aI10
aI9
aI2
aI1
aI5
aa(lp884
I7
aI1
aI5
aI3
aI6
aI4
aI2
aI0
aa(lp885
I0
aI4
aI5
aI9
aI6
aI7
aI1
aI3
aI11
aI10
aI8
aI2
aa(lp886
I2
aI1
aI0
aa(lp887
I1
aI3
aI2
aI0
aa(lp888
I1
aI2
aI6
aI12
aI14
aI0
aI11
aI13
aI4
aI3
aI9
aI8
aI7
aI5
aI10
aa(lp889
I10
aI4
aI0
aI6
aI16
aI1
aI13
aI14
aI2
aI7
aI11
aI22
aI5
aI3
aI15
aI18
aI12
aI9
aI8
aI17
aI20
aI19
aI21
aa(lp890
I0
aa(lp891
I2
aI14
aI19
aI4
aI6
aI47
aI22
aI29
aI3
aI24
aI53
aI51
aI1
aI18
aI0
aI26
aI45
aI11
aI30
aI58
aI48
aI57
aI32
aI37
aI23
aI8
aI52
aI27
aI7
aI54
aI42
aI12
aI38
aI17
aI21
aI9
aI49
aI36
aI44
aI13
aI43
aI31
aI10
aI55
aI39
aI25
aI40
aI34
aI15
aI56
aI35
aI20
aI46
aI33
aI28
aI5
aI50
aI41
aI16
aa(lp892
I21
aI8
aI19
aI15
aI1
aI7
aI4
aI6
aI16
aI10
aI0
aI2
aI11
aI20
aI12
aI5
aI17
aI18
aI14
aI13
aI3
aI9
aI22
aa(lp893
I1
aI4
aI0
aI3
aI7
aI2
aI5
aI6
aa(lp894
I13
aI8
aI17
aI14
aI10
aI19
aI1
aI3
aI15
aI16
aI9
aI18
aI0
aI7
aI20
aI12
aI4
aI5
aI11
aI6
aI2
aa(lp895
I2
aI28
aI7
aI13
aI11
aI5
aI23
aI22
aI17
aI3
aI8
aI4
aI16
aI27
aI29
aI26
aI25
aI24
aI19
aI6
aI10
aI12
aI21
aI0
aI1
aI18
aI9
aI20
aI15
aI14
aa(lp896
I3
aI6
aI5
aI0
aI2
aI4
aI7
aI1
aa(lp897
I1
aI6
aI39
aI3
aI5
aI31
aI22
aI38
aI34
aI11
aI9
aI19
aI28
aI33
aI4
aI10
aI35
aI13
aI37
aI15
aI16
aI36
aI32
aI17
aI26
aI18
aI2
aI29
aI0
aI14
aI7
aI30
aI25
aI27
aI24
aI12
aI23
aI21
aI20
aI8
aa(lp898
I6
aI13
aI0
aI9
aI11
aI10
aI14
aI1
aI4
aI15
aI8
aI3
aI2
aI7
aI5
aI12
aa(lp899
I7
aI0
aI4
aI10
aI3
aI1
aI11
aI8
aI6
aI5
aI13
aI9
aI2
aI12
aa(lp900
I0
aI3
aI1
aI2
aa(lp901
I4
aI28
aI2
aI14
aI11
aI17
aI15
aI3
aI26
aI31
aI10
aI1
aI27
aI20
aI7
aI21
aI18
aI25
aI9
aI30
aI8
aI0
aI12
aI24
aI6
aI13
aI29
aI23
aI16
aI5
aI22
aI19
aa(lp902
I2
aI1
aI3
aI4
aI0
aa(lp903
I1
aI5
aI4
aI3
aI0
aI2
aa(lp904
I6
aI0
aI1
aI3
aI2
aI7
aI8
aI4
aI9
aI5
aI10
aa(lp905
I1
aI0
aI3
aI2
aa(lp906
I3
aI2
aI6
aI1
aI7
aI0
aI4
aI5
aa(lp907
I7
aI0
aI4
aI12
aI8
aI5
aI1
aI19
aI9
aI6
aI11
aI18
aI13
aI2
aI15
aI10
aI17
aI3
aI16
aI14
aa(lp908
I0
aI2
aI1
aa(lp909
I2
aI1
aI0
aa(lp910
I7
aI11
aI12
aI20
aI13
aI8
aI16
aI19
aI18
aI14
aI6
aI1
aI3
aI17
aI0
aI21
aI4
aI2
aI5
aI9
aI15
aI10
aa(lp911
I6
aI10
aI1
aI9
aI12
aI7
aI13
aI11
aI2
aI0
aI8
aI4
aI3
aI5
aI14
aa(lp912
I1
aI0
aa(lp913
I1
aI0
aI4
aI5
aI2
aI3
aa(lp914
I0
aI5
aI1
aI4
aI3
aI6
aI7
aI2
aa(lp915
I6
aI8
aI7
aI5
aI2
aI3
aI1
aI9
aI0
aI4
aa(lp916
I0
aI8
aI9
aI6
aI7
aI5
aI3
aI4
aI2
aI1
aa(lp917
I6
aI3
aI5
aI1
aI0
aI2
aI10
aI7
aI9
aI4
aI8
aa(lp918
I0
aI1
aI3
aI4
aI2
aa(lp919
I8
aI1
aI0
aI6
aI9
aI2
aI3
aI4
aI7
aI5
aa(lp920
I9
aI0
aI14
aI3
aI17
aI10
aI5
aI1
aI13
aI12
aI2
aI15
aI16
aI8
aI7
aI4
aI18
aI11
aI6
aa(lp921
I14
aI8
aI22
aI21
aI19
aI17
aI5
aI9
aI20
aI4
aI2
aI16
aI18
aI3
aI6
aI11
aI12
aI0
aI10
aI13
aI7
aI15
aI1
aa(lp922
I0
aI1
aI3
aI2
aa(lp923
I13
aI8
aI2
aI32
aI1
aI30
aI31
aI18
aI14
aI9
aI33
aI11
aI10
aI34
aI3
aI19
aI27
aI22
aI16
aI29
aI6
aI26
aI12
aI7
aI25
aI5
aI23
aI4
aI24
aI21
aI17
aI35
aI28
aI20
aI15
aI0
aa(lp924
I4
aI2
aI12
aI15
aI1
aI0
aI6
aI9
aI8
aI14
aI11
aI10
aI7
aI5
aI3
aI13
aa(lp925
I6
aI5
aI4
aI2
aI17
aI16
aI15
aI14
aI13
aI12
aI11
aI10
aI9
aI8
aI7
aI3
aI1
aI0
aa(lp926
I0
aI2
aI4
aI3
aI7
aI5
aI1
aI6
aa(lp927
I1
aI0
aa(lp928
I1
aI8
aI2
aI12
aI10
aI0
aI11
aI13
aI3
aI9
aI4
aI5
aI7
aI6
aa(lp929
I11
aI3
aI10
aI14
aI12
aI9
aI6
aI5
aI2
aI15
aI7
aI13
aI1
aI8
aI4
aI0
aa(lp930
I0
aa(lp931
I3
aI10
aI0
aI1
aI8
aI6
aI7
aI2
aI11
aI5
aI4
aI9
aa(lp932
I0
aI2
aI3
aI1
aa(lp933
I1
aI3
aI2
aI0
aa(lp934
I6
aI8
aI1
aI9
aI4
aI3
aI0
aI10
aI5
aI7
aI2
aa(lp935
I0
aI19
aI9
aI20
aI13
aI15
aI4
aI3
aI14
aI16
aI7
aI10
aI17
aI6
aI2
aI11
aI8
aI5
aI1
aI12
aI18
aa(lp936
I32
aI2
aI26
aI27
aI21
aI16
aI24
aI5
aI6
aI8
aI20
aI11
aI31
aI22
aI12
aI10
aI23
aI7
aI13
aI28
aI9
aI15
aI4
aI19
aI1
aI30
aI14
aI3
aI25
aI17
aI18
aI0
aI29
aa(lp937
I1
aI5
aI3
aI2
aI0
aI4
aa(lp938
I0
aI3
aI8
aI9
aI4
aI7
aI1
aI11
aI5
aI2
aI6
aI10
aI12
aa(lp939
I8
aI16
aI23
aI19
aI4
aI1
aI20
aI9
aI12
aI18
aI14
aI11
aI10
aI13
aI0
aI6
aI22
aI3
aI5
aI17
aI21
aI7
aI15
aI2
aa(lp940
I3
aI1
aI0
aI2
aa(lp941
I1
aI4
aI6
aI2
aI0
aI7
aI3
aI5
aI8
aa(lp942
I1
aI0
aI5
aI2
aI4
aI3
aa(lp943
I0
aa(lp944
I13
aI14
aI11
aI10
aI3
aI7
aI0
aI12
aI9
aI4
aI5
aI6
aI8
aI1
aI2
aa(lp945
I3
aI4
aI1
aI2
aI0
aa(lp946
I0
aI2
aI1
aI3
aa(lp947
I0
aI7
aI1
aI5
aI2
aI4
aI3
aI6
aa(lp948
I1
aI0
aI2
aa(lp949
I5
aI14
aI19
aI1
aI21
aI13
aI4
aI23
aI15
aI12
aI3
aI32
aI20
aI29
aI24
aI7
aI27
aI35
aI0
aI34
aI30
aI2
aI33
aI31
aI9
aI26
aI6
aI18
aI25
aI17
aI22
aI8
aI28
aI16
aI10
aI11
aa(lp950
I13
aI0
aI16
aI10
aI2
aI11
aI12
aI6
aI15
aI4
aI1
aI8
aI9
aI5
aI3
aI14
aI7
aa(lp951
I0
aI10
aI8
aI5
aI11
aI2
aI1
aI4
aI6
aI3
aI12
aI7
aI13
aI9
aa(lp952
I2
aI1
aI4
aI0
aI3
aa(lp953
I7
aI5
aI2
aI11
aI6
aI3
aI0
aI4
aI1
aI13
aI14
aI12
aI8
aI9
aI10
aa(lp954
I2
aI0
aI5
aI10
aI7
aI9
aI11
aI8
aI3
aI1
aI4
aI6
aa(lp955
I1
aI5
aI3
aI0
aI4
aI6
aI2
aa(lp956
I3
aI6
aI8
aI12
aI9
aI11
aI4
aI15
aI7
aI18
aI5
aI19
aI10
aI17
aI0
aI1
aI14
aI16
aI13
aI2
aa(lp957
I6
aI0
aI7
aI13
aI9
aI19
aI25
aI18
aI10
aI26
aI21
aI1
aI8
aI2
aI16
aI12
aI24
aI17
aI11
aI27
aI20
aI23
aI22
aI14
aI5
aI15
aI3
aI4
aa(lp958
I3
aI4
aI1
aI0
aI2
aI5
aa(lp959
I3
aI7
aI4
aI1
aI6
aI2
aI5
aI0
aa(lp960
I19
aI12
aI6
aI14
aI17
aI9
aI3
aI2
aI18
aI15
aI1
aI10
aI13
aI5
aI0
aI16
aI20
aI7
aI4
aI11
aI8
aa(lp961
I5
aI1
aI3
aI8
aI2
aI6
aI9
aI0
aI4
aI7
aa(lp962
I0
aI9
aI6
aI3
aI1
aI8
aI7
aI5
aI4
aI2
aa(lp963
I0
aI20
aI19
aI11
aI5
aI21
aI17
aI18
aI14
aI10
aI7
aI13
aI9
aI8
aI1
aI16
aI2
aI6
aI3
aI4
aI15
aI12
aa(lp964
I23
aI13
aI22
aI12
aI19
aI14
aI21
aI5
aI20
aI15
aI24
aI8
aI9
aI3
aI2
aI0
aI16
aI17
aI6
aI4
aI1
aI18
aI11
aI7
aI10
aa(lp965
I0
aI1
aI2
aa(lp966
I1
aI3
aI2
aI5
aI0
aI4
aa(lp967
I0
aI7
aI5
aI2
aI6
aI9
aI4
aI1
aI3
aI8
aa(lp968
I1
aI3
aI0
aI4
aI2
aa(lp969
I1
aI0
aa(lp970
I0
aI8
aI4
aI1
aI2
aI3
aI5
aI7
aI6
aa(lp971
I2
aI0
aI1
aa(lp972
I7
aI14
aI39
aI2
aI30
aI53
aI18
aI32
aI37
aI1
aI47
aI34
aI59
aI43
aI19
aI21
aI9
aI50
aI60
aI24
aI67
aI55
aI45
aI6
aI49
aI61
aI23
aI52
aI10
aI27
aI33
aI12
aI8
aI22
aI62
aI51
aI11
aI41
aI64
aI66
aI16
aI4
aI63
aI48
aI15
aI13
aI44
aI20
aI29
aI57
aI68
aI54
aI3
aI25
aI28
aI56
aI40
aI58
aI36
aI0
aI38
aI46
aI5
aI65
aI35
aI31
aI17
aI42
aI26
aa(lp973
I0
aI1
aI2
aa(lp974
I0
aI6
aI5
aI7
aI8
aI10
aI1
aI4
aI9
aI11
aI3
aI2
aa(lp975
I6
aI9
aI0
aI5
aI2
aI3
aI10
aI1
aI7
aI11
aI8
aI4
aa(lp976
I31
aI34
aI11
aI23
aI33
aI32
aI27
aI25
aI2
aI5
aI7
aI26
aI30
aI35
aI24
aI17
aI21
aI8
aI15
aI22
aI6
aI16
aI13
aI28
aI1
aI18
aI0
aI4
aI10
aI9
aI14
aI29
aI12
aI20
aI19
aI3
aa(lp977
I13
aI12
aI6
aI1
aI2
aI0
aI7
aI11
aI9
aI10
aI8
aI4
aI3
aI5
aa(lp978
I0
aI2
aI1
aa(lp979
I2
aI7
aI5
aI32
aI3
aI26
aI25
aI15
aI33
aI24
aI0
aI31
aI8
aI30
aI19
aI4
aI27
aI18
aI9
aI17
aI16
aI6
aI22
aI11
aI23
aI20
aI34
aI29
aI12
aI1
aI28
aI14
aI10
aI21
aI13
aa(lp980
I2
aI8
aI7
aI6
aI4
aI3
aI0
aI1
aI5
aa(lp981
I2
aI13
aI3
aI7
aI4
aI0
aI9
aI6
aI12
aI5
aI1
aI11
aI10
aI8
aa(lp982
I1
aI0
aI4
aI5
aI6
aI3
aI2
aa(lp983
I42
aI35
aI15
aI7
aI38
aI11
aI43
aI37
aI33
aI28
aI18
aI14
aI8
aI0
aI40
aI22
aI20
aI19
aI10
aI5
aI2
aI23
aI25
aI12
aI4
aI39
aI30
aI29
aI26
aI17
aI13
aI9
aI1
aI41
aI34
aI31
aI27
aI24
aI21
aI16
aI6
aI3
aI36
aI32
aa(lp984
I1
aI2
aI9
aI4
aI8
aI6
aI0
aI7
aI5
aI3
aa(lp985
I3
aI20
aI18
aI16
aI15
aI19
aI17
aI14
aI11
aI8
aI7
aI6
aI5
aI0
aI10
aI9
aI4
aI13
aI12
aI2
aI1
aa(lp986
I5
aI9
aI0
aI8
aI4
aI23
aI15
aI7
aI20
aI3
aI14
aI16
aI22
aI18
aI17
aI6
aI21
aI11
aI2
aI12
aI10
aI1
aI19
aI13
aa(lp987
I10
aI0
aI13
aI9
aI3
aI2
aI14
aI4
aI7
aI8
aI12
aI5
aI15
aI6
aI11
aI1
aa(lp988
I0
aI2
aI1
aI3
aI5
aI6
aI7
aI4
aa(lp989
I15
aI28
aI7
aI30
aI21
aI17
aI26
aI0
aI32
aI2
aI31
aI9
aI14
aI6
aI25
aI11
aI3
aI33
aI19
aI8
aI24
aI29
aI23
aI18
aI1
aI4
aI5
aI22
aI16
aI20
aI10
aI27
aI13
aI12
aa(lp990
I6
aI14
aI11
aI13
aI10
aI1
aI3
aI15
aI12
aI4
aI9
aI5
aI7
aI0
aI8
aI2
aa(lp991
I7
aI28
aI41
aI16
aI29
aI8
aI18
aI46
aI60
aI36
aI5
aI61
aI58
aI21
aI9
aI24
aI52
aI49
aI45
aI37
aI54
aI1
aI4
aI38
aI20
aI15
aI55
aI43
aI12
aI6
aI47
aI19
aI53
aI17
aI31
aI39
aI59
aI34
aI14
aI57
aI33
aI48
aI44
aI62
aI51
aI42
aI56
aI26
aI32
aI0
aI13
aI27
aI2
aI40
aI25
aI11
aI22
aI10
aI23
aI50
aI3
aI30
aI35
aa(lp992
I1
aI9
aI8
aI7
aI3
aI6
aI5
aI2
aI4
aI0
aa(lp993
I22
aI20
aI6
aI16
aI9
aI11
aI25
aI27
aI13
aI12
aI10
aI8
aI26
aI2
aI23
aI21
aI17
aI14
aI19
aI15
aI24
aI5
aI7
aI3
aI4
aI1
aI28
aI0
aI18
aa(lp994
I4
aI10
aI0
aI8
aI1
aI2
aI9
aI3
aI6
aI7
aI5
aa(lp995
I35
aI42
aI14
aI11
aI7
aI20
aI43
aI46
aI24
aI29
aI18
aI31
aI47
aI13
aI15
aI41
aI5
aI38
aI49
aI37
aI55
aI50
aI32
aI1
aI36
aI39
aI23
aI54
aI21
aI45
aI17
aI16
aI33
aI4
aI8
aI26
aI3
aI34
aI22
aI9
aI40
aI10
aI28
aI51
aI44
aI0
aI53
aI48
aI2
aI12
aI25
aI19
aI6
aI30
aI52
aI27
aa(lp996
I9
aI0
aI7
aI2
aI1
aI5
aI6
aI4
aI8
aI3
aa(lp997
I0
aI1
aI2
aI3
aa(lp998
I14
aI13
aI17
aI15
aI7
aI2
aI8
aI6
aI3
aI10
aI1
aI16
aI5
aI9
aI0
aI4
aI11
aI12
aa(lp999
I0
aI5
aI3
aI2
aI1
aI4
aa(lp1000
I1
aI3
aI8
aI4
aI6
aI0
aI5
aI7
aI2
aa(lp1001
I16
aI3
aI23
aI5
aI17
aI12
aI6
aI10
aI18
aI8
aI24
aI4
aI0
aI20
aI11
aI21
aI15
aI13
aI9
aI2
aI19
aI14
aI25
aI22
aI7
aI1
aa(lp1002
I13
aI26
aI23
aI4
aI2
aI19
aI5
aI22
aI14
aI17
aI0
aI9
aI6
aI24
aI11
aI20
aI18
aI8
aI1
aI12
aI10
aI7
aI16
aI21
aI27
aI25
aI3
aI15
aa(lp1003
I2
aI4
aI9
aI0
aI3
aI7
aI8
aI6
aI5
aI1
aa(lp1004
I1
aI0
aI2
aI4
aI3
aa(lp1005
I4
aI15
aI5
aI16
aI0
aI13
aI7
aI14
aI6
aI17
aI11
aI10
aI12
aI8
aI2
aI9
aI3
aI1
aa(lp1006
I9
aI10
aI4
aI2
aI0
aI6
aI1
aI8
aI7
aI5
aI11
aI3
aa(lp1007
I2
aI1
aI8
aI9
aI4
aI3
aI10
aI7
aI6
aI5
aI0
aa(lp1008
I0
aI3
aI4
aI17
aI5
aI14
aI6
aI19
aI10
aI7
aI20
aI8
aI1
aI13
aI9
aI15
aI21
aI11
aI12
aI16
aI2
aI18
aa(lp1009
I1
aI4
aI7
aI6
aI5
aI2
aI8
aI3
aI0
aa(lp1010
I4
aI3
aI0
aI2
aI1
aa(lp1011
I2
aI0
aI1
aa(lp1012
I6
aI0
aI5
aI2
aI9
aI8
aI1
aI7
aI3
aI4
aa(lp1013
I22
aI3
aI1
aI4
aI18
aI8
aI9
aI6
aI0
aI7
aI17
aI16
aI11
aI2
aI15
aI5
aI14
aI12
aI19
aI21
aI20
aI13
aI10
aa(lp1014
I25
aI19
aI2
aI13
aI3
aI0
aI8
aI22
aI23
aI10
aI9
aI24
aI27
aI5
aI4
aI26
aI20
aI1
aI17
aI14
aI21
aI18
aI16
aI12
aI7
aI15
aI11
aI6
aa(lp1015
I6
aI13
aI2
aI4
aI14
aI0
aI3
aI12
aI5
aI1
aI10
aI8
aI11
aI7
aI9
aa(lp1016
I0
aI3
aI6
aI4
aI1
aI5
aI2
aa(lp1017
I15
aI16
aI14
aI10
aI0
aI11
aI3
aI12
aI4
aI9
aI1
aI13
aI7
aI6
aI8
aI5
aI2
aa(lp1018
I16
aI22
aI6
aI12
aI21
aI13
aI23
aI20
aI2
aI5
aI11
aI9
aI17
aI10
aI1
aI8
aI19
aI18
aI0
aI3
aI7
aI14
aI4
aI15
aa(lp1019
I0
aI1
aI5
aI7
aI4
aI6
aI3
aI2
aI10
aI9
aI8
aa(lp1020
I0
aa(lp1021
I6
aI12
aI2
aI1
aI15
aI0
aI10
aI3
aI9
aI13
aI8
aI4
aI11
aI7
aI14
aI5
aa(lp1022
I19
aI11
aI0
aI3
aI2
aI16
aI7
aI1
aI8
aI18
aI12
aI6
aI5
aI17
aI9
aI10
aI14
aI4
aI13
aI15
aa(lp1023
I0
aI1
aI2
aI4
aI3
aI5
aI6
aa(lp1024
I10
aI9
aI3
aI5
aI8
aI4
aI11
aI7
aI6
aI2
aI1
aI0
aa(lp1025
I0
aI16
aI13
aI12
aI8
aI1
aI11
aI2
aI3
aI10
aI14
aI9
aI15
aI7
aI6
aI4
aI5
aa(lp1026
I1
aI2
aI6
aI10
aI12
aI11
aI15
aI14
aI0
aI16
aI8
aI17
aI5
aI9
aI18
aI13
aI7
aI3
aI4
aa(lp1027
I3
aI1
aI0
aI2
aa(lp1028
I6
aI0
aI2
aI7
aI1
aI10
aI8
aI11
aI9
aI4
aI3
aI5
aa(lp1029
I0
aI2
aI1
aI3
aI4
aa(lp1030
I3
aI6
aI2
aI0
aI5
aI4
aI1
aa(lp1031
I37
aI12
aI40
aI2
aI41
aI10
aI1
aI27
aI42
aI9
aI26
aI16
aI4
aI8
aI13
aI30
aI0
aI18
aI33
aI7
aI15
aI32
aI31
aI17
aI25
aI3
aI5
aI11
aI23
aI24
aI22
aI19
aI29
aI6
aI20
aI28
aI34
aI21
aI36
aI35
aI43
aI39
aI38
aI14
aa(lp1032
I11
aI0
aI23
aI10
aI19
aI21
aI22
aI15
aI6
aI4
aI12
aI20
aI14
aI18
aI16
aI5
aI2
aI9
aI3
aI17
aI8
aI13
aI7
aI1
aa(lp1033
I5
aI0
aI3
aI6
aI8
aI4
aI14
aI17
aI2
aI13
aI12
aI11
aI7
aI10
aI1
aI9
aI16
aI15
aa(lp1034
I0
aI2
aI1
aa(lp1035
I1
aI0
aI12
aI9
aI18
aI4
aI11
aI16
aI15
aI17
aI14
aI20
aI8
aI2
aI13
aI7
aI10
aI6
aI21
aI3
aI22
aI5
aI19
aa(lp1036
I1
aI0
aa(lp1037
I23
aI31
aI12
aI2
aI21
aI11
aI25
aI5
aI24
aI14
aI27
aI9
aI13
aI19
aI4
aI30
aI3
aI22
aI17
aI18
aI15
aI6
aI8
aI20
aI10
aI1
aI7
aI16
aI0
aI28
aI26
aI29
aa(lp1038
I27
aI6
aI28
aI38
aI2
aI32
aI31
aI7
aI35
aI23
aI22
aI33
aI16
aI15
aI0
aI1
aI17
aI5
aI12
aI21
aI3
aI8
aI34
aI10
aI24
aI36
aI30
aI9
aI18
aI11
aI13
aI37
aI29
aI4
aI26
aI20
aI25
aI40
aI19
aI14
aI39
aa(lp1039
I5
aI3
aI8
aI11
aI2
aI34
aI0
aI1
aI23
aI21
aI9
aI27
aI13
aI25
aI16
aI6
aI20
aI19
aI30
aI17
aI28
aI37
aI15
aI24
aI31
aI38
aI36
aI39
aI14
aI22
aI7
aI29
aI12
aI18
aI4
aI10
aI33
aI35
aI32
aI26
aa(lp1040
I6
aI20
aI23
aI12
aI9
aI17
aI4
aI1
aI16
aI22
aI2
aI10
aI3
aI8
aI19
aI18
aI7
aI11
aI13
aI21
aI0
aI25
aI24
aI5
aI15
aI14
aa(lp1041
I3
aI0
aI2
aI1
aa(lp1042
I2
aI4
aI1
aI0
aI3
aa(lp1043
I23
aI0
aI1
aI16
aI13
aI11
aI18
aI21
aI19
aI10
aI22
aI20
aI17
aI15
aI12
aI9
aI2
aI4
aI14
aI7
aI3
aI8
aI6
aI5
aa(lp1044
I14
aI0
aI8
aI13
aI2
aI6
aI1
aI11
aI12
aI5
aI3
aI10
aI7
aI4
aI9
aa(lp1045
I5
aI0
aI7
aI3
aI6
aI2
aI4
aI1
aI8
aa(lp1046
I1
aI2
aI0
aa(lp1047
I8
aI0
aI6
aI5
aI3
aI4
aI7
aI1
aI2
aa(lp1048
I0
aI2
aI11
aI7
aI8
aI10
aI5
aI6
aI4
aI9
aI3
aI1
aa(lp1049
I0
aI2
aI1
aa(lp1050
I3
aI4
aI8
aI5
aI7
aI6
aI0
aI1
aI2
aa(lp1051
I13
aI23
aI16
aI10
aI11
aI21
aI17
aI7
aI5
aI3
aI1
aI15
aI14
aI12
aI0
aI6
aI24
aI19
aI9
aI8
aI4
aI2
aI22
aI20
aI18
aa(lp1052
I1
aI18
aI27
aI22
aI19
aI12
aI6
aI11
aI26
aI7
aI5
aI16
aI21
aI23
aI0
aI9
aI2
aI17
aI13
aI25
aI15
aI14
aI24
aI3
aI10
aI8
aI20
aI4
aa(lp1053
I1
aI2
aI0
aI3
aa(lp1054
I7
aI6
aI0
aI5
aI3
aI4
aI9
aI8
aI2
aI10
aI1
aa(lp1055
I9
aI1
aI5
aI0
aI6
aI8
aI11
aI15
aI10
aI16
aI7
aI13
aI14
aI4
aI18
aI3
aI17
aI2
aI12
aa(lp1056
I0
aI1
aI4
aI3
aI2
aa(lp1057
I2
aI1
aI3
aI6
aI8
aI4
aI5
aI0
aI7
aI9
aa(lp1058
I1
aI4
aI0
aI7
aI5
aI2
aI3
aI8
aI6
aa(lp1059
I9
aI3
aI1
aI14
aI10
aI7
aI0
aI35
aI41
aI40
aI31
aI21
aI5
aI11
aI8
aI17
aI20
aI2
aI15
aI43
aI30
aI34
aI16
aI37
aI29
aI18
aI23
aI19
aI38
aI22
aI13
aI4
aI36
aI33
aI26
aI39
aI27
aI42
aI44
aI6
aI25
aI24
aI28
aI12
aI32
aa(lp1060
I4
aI0
aI1
aI7
aI6
aI3
aI8
aI5
aI2
aa(lp1061
I17
aI23
aI4
aI19
aI18
aI25
aI20
aI21
aI27
aI2
aI15
aI7
aI22
aI12
aI8
aI6
aI11
aI16
aI1
aI9
aI24
aI13
aI26
aI28
aI0
aI3
aI14
aI10
aI5
aa(lp1062
I1
aI0
aa(lp1063
I5
aI2
aI4
aI16
aI3
aI11
aI14
aI1
aI8
aI6
aI12
aI7
aI17
aI9
aI15
aI10
aI0
aI13
aa(lp1064
I0
aI8
aI1
aI14
aI5
aI7
aI13
aI4
aI6
aI2
aI12
aI3
aI9
aI11
aI10
aa(lp1065
I0
aa(lp1066
I2
aI0
aI1
aI4
aI3
aa(lp1067
I4
aI0
aI21
aI18
aI1
aI3
aI8
aI5
aI15
aI13
aI12
aI10
aI2
aI19
aI16
aI14
aI11
aI7
aI20
aI17
aI9
aI6
aa(lp1068
I37
aI25
aI1
aI23
aI34
aI19
aI30
aI35
aI21
aI5
aI11
aI29
aI20
aI36
aI22
aI26
aI0
aI15
aI17
aI7
aI24
aI18
aI16
aI14
aI13
aI9
aI8
aI27
aI28
aI38
aI31
aI12
aI3
aI33
aI32
aI6
aI4
aI2
aI10
aa(lp1069
I1
aI0
aI3
aI2
aa(lp1070
I7
aI0
aI15
aI12
aI16
aI18
aI1
aI4
aI14
aI3
aI10
aI8
aI19
aI17
aI2
aI5
aI11
aI9
aI13
aI6
aa(lp1071
I7
aI14
aI0
aI6
aI15
aI12
aI9
aI8
aI5
aI4
aI13
aI11
aI10
aI3
aI2
aI1
aa(lp1072
I2
aI0
aI1
aa(lp1073
I0
aa(lp1074
I5
aI3
aI0
aI1
aI4
aI7
aI6
aI2
aa(lp1075
I0
aI5
aI2
aI4
aI3
aI1
aa(lp1076
I2
aI1
aI0
aI5
aI4
aI3
aa(lp1077
I5
aI3
aI0
aI6
aI4
aI8
aI9
aI1
aI7
aI12
aI11
aI10
aI2
aa(lp1078
I7
aI0
aI1
aI5
aI2
aI6
aI4
aI3
aa(lp1079
I11
aI5
aI15
aI10
aI12
aI2
aI8
aI7
aI3
aI4
aI14
aI1
aI6
aI17
aI13
aI0
aI16
aI9
aa(lp1080
I29
aI28
aI21
aI17
aI16
aI13
aI10
aI9
aI5
aI1
aI0
aI27
aI26
aI25
aI24
aI23
aI22
aI20
aI19
aI18
aI15
aI14
aI12
aI11
aI8
aI7
aI6
aI4
aI3
aI2
aa(lp1081
I3
aI7
aI5
aI6
aI8
aI0
aI4
aI10
aI1
aI9
aI2
aa(lp1082
I9
aI8
aI6
aI0
aI10
aI5
aI2
aI4
aI7
aI3
aI1
aa(lp1083
I2
aI13
aI6
aI28
aI4
aI26
aI3
aI31
aI10
aI0
aI7
aI1
aI21
aI27
aI15
aI20
aI9
aI19
aI11
aI30
aI14
aI12
aI18
aI8
aI22
aI24
aI29
aI23
aI5
aI32
aI25
aI17
aI16
aa(lp1084
I7
aI13
aI10
aI6
aI9
aI11
aI8
aI0
aI4
aI3
aI1
aI15
aI14
aI16
aI12
aI5
aI2
aa(lp1085
I2
aI0
aI1
aa(lp1086
I3
aI15
aI8
aI0
aI6
aI7
aI11
aI4
aI13
aI2
aI10
aI14
aI5
aI9
aI1
aI12
aa(lp1087
I6
aI29
aI23
aI4
aI3
aI5
aI24
aI20
aI9
aI26
aI13
aI0
aI15
aI11
aI10
aI12
aI2
aI7
aI28
aI8
aI31
aI18
aI21
aI1
aI25
aI14
aI17
aI30
aI27
aI16
aI22
aI19
aa(lp1088
I5
aI4
aI9
aI1
aI0
aI2
aI10
aI8
aI7
aI3
aI6
aa(lp1089
I4
aI1
aI3
aI2
aI0
aa(lp1090
I0
aI8
aI12
aI11
aI5
aI13
aI9
aI2
aI15
aI10
aI6
aI4
aI14
aI7
aI3
aI1
aa(lp1091
I1
aI2
aI9
aI16
aI13
aI15
aI18
aI10
aI14
aI17
aI5
aI11
aI8
aI0
aI7
aI4
aI6
aI3
aI12
aa(lp1092
I6
aI5
aI4
aI3
aI2
aI1
aI0
aa(lp1093
I3
aI1
aI4
aI0
aI2
aa(lp1094
I6
aI3
aI11
aI9
aI10
aI7
aI0
aI5
aI12
aI2
aI1
aI17
aI15
aI14
aI16
aI8
aI13
aI4
aa(lp1095
I0
aI1
aa(lp1096
I4
aI5
aI2
aI3
aI1
aI6
aI0
aa(lp1097
I8
aI12
aI14
aI10
aI4
aI11
aI17
aI13
aI7
aI16
aI15
aI9
aI1
aI0
aI6
aI3
aI2
aI5
aa(lp1098
I0
aI1
aI16
aI2
aI8
aI5
aI15
aI11
aI6
aI12
aI13
aI14
aI4
aI10
aI9
aI3
aI7
aa(lp1099
I5
aI8
aI6
aI1
aI13
aI12
aI0
aI7
aI3
aI11
aI2
aI9
aI10
aI4
aa(lp1100
I1
aI3
aI6
aI7
aI5
aI2
aI0
aI4
aa(lp1101
I1
aI2
aI5
aI4
aI0
aI3
aa(lp1102
I26
aI19
aI3
aI13
aI28
aI8
aI25
aI21
aI5
aI24
aI9
aI2
aI10
aI18
aI11
aI22
aI17
aI15
aI16
aI12
aI29
aI27
aI14
aI0
aI23
aI20
aI7
aI6
aI4
aI1
aa(lp1103
I39
aI90
aI43
aI66
aI18
aI79
aI74
aI57
aI35
aI75
aI30
aI2
aI41
aI15
aI56
aI53
aI47
aI62
aI26
aI4
aI91
aI58
aI89
aI34
aI87
aI88
aI3
aI81
aI78
aI85
aI83
aI55
aI0
aI54
aI42
aI60
aI36
aI33
aI51
aI52
aI48
aI20
aI9
aI17
aI12
aI24
aI29
aI28
aI44
aI40
aI68
aI31
aI80
aI84
aI45
aI7
aI10
aI67
aI59
aI77
aI6
aI22
aI76
aI25
aI37
aI86
aI5
aI61
aI19
aI50
aI38
aI70
aI16
aI65
aI69
aI32
aI63
aI23
aI13
aI49
aI82
aI11
aI21
aI14
aI72
aI64
aI46
aI27
aI8
aI1
aI73
aI71
aa(lp1104
I5
aI2
aI6
aI3
aI10
aI8
aI0
aI9
aI4
aI11
aI7
aI1
aa(lp1105
I1
aI0
aa(lp1106
I11
aI1
aI12
aI8
aI4
aI5
aI0
aI3
aI10
aI9
aI2
aI7
aI6
aa(lp1107
I12
aI10
aI11
aI14
aI15
aI9
aI1
aI13
aI0
aI4
aI5
aI3
aI7
aI6
aI8
aI16
aI2
aa(lp1108
I9
aI8
aI5
aI7
aI1
aI0
aI6
aI3
aI2
aI4
aa(lp1109
I2
aI6
aI8
aI4
aI5
aI1
aI0
aI3
aI7
aa(lp1110
I3
aI4
aI12
aI21
aI16
aI10
aI1
aI17
aI15
aI20
aI0
aI2
aI23
aI22
aI19
aI18
aI14
aI7
aI13
aI11
aI9
aI8
aI6
aI5
aa(lp1111
I7
aI5
aI2
aI3
aI4
aI6
aI1
aI0
aa(lp1112
I10
aI25
aI4
aI6
aI24
aI7
aI22
aI12
aI1
aI13
aI23
aI21
aI8
aI16
aI5
aI17
aI14
aI2
aI15
aI11
aI20
aI3
aI18
aI19
aI9
aI0
aa(lp1113
I9
aI16
aI2
aI15
aI14
aI3
aI29
aI30
aI22
aI11
aI26
aI10
aI18
aI21
aI6
aI13
aI19
aI4
aI23
aI12
aI28
aI17
aI24
aI0
aI31
aI20
aI25
aI1
aI8
aI5
aI27
aI7
aa(lp1114
I13
aI8
aI14
aI0
aI6
aI12
aI10
aI9
aI11
aI2
aI15
aI7
aI5
aI4
aI3
aI1
aa(lp1115
I7
aI3
aI10
aI8
aI6
aI15
aI13
aI9
aI11
aI1
aI0
aI2
aI5
aI16
aI4
aI14
aI12
aa(lp1116
I14
aI9
aI17
aI16
aI10
aI15
aI13
aI19
aI4
aI5
aI11
aI8
aI18
aI7
aI24
aI2
aI26
aI25
aI6
aI22
aI12
aI3
aI0
aI23
aI1
aI20
aI21
aa(lp1117
I1
aI2
aI10
aI14
aI6
aI5
aI17
aI4
aI8
aI12
aI3
aI16
aI15
aI13
aI11
aI9
aI7
aI0
aa(lp1118
I0
aI14
aI13
aI7
aI16
aI2
aI5
aI11
aI10
aI12
aI6
aI4
aI15
aI9
aI3
aI1
aI8
aa(lp1119
I11
aI5
aI10
aI9
aI2
aI8
aI6
aI3
aI1
aI0
aI4
aI7
aa(lp1120
I0
aI1
aI3
aI4
aI2
aa(lp1121
I0
aI3
aI1
aI2
aa(lp1122
I3
aI2
aI0
aI1
aa(lp1123
I0
aI4
aI3
aI2
aI1
aa(lp1124
I0
aI2
aI1
aI3
aa(lp1125
I9
aI1
aI6
aI4
aI8
aI5
aI7
aI0
aI3
aI2
aa(lp1126
I11
aI15
aI14
aI7
aI6
aI5
aI8
aI4
aI10
aI12
aI13
aI9
aI2
aI1
aI0
aI3
aa(lp1127
I5
aI4
aI3
aI6
aI0
aI2
aI1
aa(lp1128
I1
aI5
aI3
aI6
aI0
aI2
aI4
aa(lp1129
I0
aI1
aI2
aa(lp1130
I15
aI0
aI16
aI13
aI1
aI11
aI5
aI17
aI3
aI8
aI19
aI2
aI7
aI10
aI6
aI18
aI20
aI9
aI4
aI14
aI12
aa(lp1131
I0
aI3
aI2
aI1
aa(lp1132
I0
aa(lp1133
I4
aI3
aI1
aI0
aI2
aa(lp1134
I2
aI0
aI1
aa(lp1135
I0
aI2
aI1
aa(lp1136
I0
aI2
aI1
aa(lp1137
I1
aI2
aI7
aI6
aI3
aI0
aI9
aI5
aI10
aI4
aI8
aa(lp1138
I0
aI24
aI18
aI22
aI11
aI14
aI3
aI12
aI8
aI23
aI16
aI10
aI5
aI13
aI4
aI20
aI6
aI2
aI15
aI7
aI1
aI17
aI25
aI21
aI9
aI19
aa(lp1139
I26
aI18
aI13
aI4
aI9
aI3
aI7
aI1
aI23
aI21
aI10
aI2
aI6
aI25
aI20
aI16
aI11
aI8
aI27
aI14
aI5
aI24
aI17
aI0
aI22
aI19
aI15
aI12
aa(lp1140
I16
aI14
aI13
aI0
aI1
aI6
aI11
aI4
aI8
aI5
aI9
aI12
aI10
aI7
aI3
aI15
aI2
aa(lp1141
I0
aI1
aa(lp1142
I3
aI11
aI2
aI5
aI1
aI4
aI7
aI9
aI10
aI6
aI8
aI0
aa(lp1143
I2
aI5
aI4
aI12
aI6
aI9
aI10
aI11
aI8
aI3
aI0
aI7
aI1
aa(lp1144
I4
aI0
aI2
aI3
aI7
aI8
aI1
aI5
aI6
aa(lp1145
I10
aI4
aI2
aI25
aI31
aI16
aI18
aI15
aI23
aI22
aI24
aI28
aI29
aI26
aI13
aI11
aI6
aI5
aI30
aI20
aI0
aI19
aI14
aI12
aI8
aI3
aI1
aI21
aI27
aI17
aI9
aI7
aa(lp1146
I5
aI1
aI21
aI25
aI11
aI8
aI27
aI19
aI13
aI23
aI17
aI6
aI26
aI22
aI16
aI24
aI9
aI3
aI28
aI20
aI18
aI14
aI10
aI7
aI29
aI15
aI2
aI0
aI12
aI4
aa(lp1147
I1
aI22
aI2
aI7
aI18
aI10
aI5
aI13
aI16
aI6
aI20
aI17
aI14
aI9
aI21
aI15
aI8
aI4
aI0
aI12
aI19
aI11
aI3
aa(lp1148
I0
aI2
aI5
aI24
aI57
aI12
aI11
aI61
aI59
aI16
aI4
aI45
aI3
aI41
aI19
aI53
aI33
aI27
aI26
aI60
aI42
aI47
aI29
aI38
aI34
aI64
aI18
aI23
aI15
aI1
aI52
aI65
aI37
aI8
aI55
aI54
aI10
aI66
aI51
aI20
aI13
aI22
aI40
aI62
aI14
aI46
aI43
aI49
aI58
aI30
aI31
aI6
aI35
aI68
aI69
aI48
aI32
aI28
aI63
aI50
aI7
aI67
aI36
aI44
aI9
aI17
aI39
aI21
aI56
aI25
aa(lp1149
I0
aI1
aI2
aI3
aI9
aI7
aI4
aI10
aI5
aI6
aI12
aI11
aI8
aa(lp1150
I1
aI2
aI3
aI4
aI0
aI6
aI5
aa(lp1151
I10
aI2
aI0
aI15
aI9
aI14
aI16
aI6
aI13
aI5
aI17
aI12
aI18
aI1
aI11
aI3
aI19
aI7
aI4
aI20
aI8
aa(lp1152
I2
aI1
aI0
aa(lp1153
I7
aI4
aI2
aI5
aI1
aI3
aI6
aI0
aa(lp1154
I0
aI9
aI4
aI3
aI6
aI8
aI10
aI7
aI2
aI1
aI11
aI5
aa(lp1155
I10
aI9
aI0
aI5
aI11
aI12
aI3
aI13
aI7
aI6
aI4
aI8
aI2
aI14
aI1
aa(lp1156
I3
aI2
aI5
aI7
aI13
aI4
aI9
aI6
aI15
aI11
aI8
aI10
aI1
aI14
aI12
aI0
aa(lp1157
I3
aI1
aI2
aI4
aI0
aa(lp1158
I0
aI4
aI10
aI1
aI2
aI8
aI5
aI9
aI6
aI3
aI7
aa(lp1159
I1
aI0
aI14
aI6
aI10
aI16
aI19
aI18
aI8
aI15
aI3
aI2
aI22
aI21
aI5
aI23
aI20
aI17
aI12
aI4
aI25
aI9
aI11
aI7
aI24
aI13
aa(lp1160
I10
aI0
aI5
aI8
aI14
aI15
aI9
aI6
aI11
aI2
aI13
aI4
aI16
aI1
aI7
aI12
aI3
aa(lp1161
I1
aI0
aa(lp1162
I23
aI20
aI8
aI6
aI24
aI26
aI16
aI9
aI2
aI27
aI17
aI13
aI7
aI25
aI19
aI10
aI14
aI21
aI18
aI15
aI11
aI5
aI22
aI0
aI4
aI1
aI12
aI3
aa(lp1163
I1
aI2
aI3
aI0
aI4
aI5
aa(lp1164
I10
aI17
aI5
aI8
aI13
aI14
aI16
aI7
aI3
aI6
aI11
aI27
aI24
aI21
aI26
aI20
aI0
aI25
aI2
aI4
aI9
aI15
aI1
aI12
aI23
aI22
aI18
aI19
aa(lp1165
I2
aI1
aI0
aI3
aa(lp1166
I8
aI7
aI3
aI10
aI2
aI4
aI0
aI6
aI1
aI5
aI9
aa(lp1167
I3
aI0
aI2
aI1
aa(lp1168
I12
aI25
aI21
aI15
aI2
aI20
aI0
aI14
aI8
aI24
aI13
aI26
aI1
aI9
aI23
aI6
aI17
aI18
aI11
aI10
aI5
aI4
aI7
aI3
aI22
aI19
aI16
aa(lp1169
I11
aI10
aI2
aI3
aI13
aI15
aI4
aI14
aI1
aI12
aI6
aI5
aI0
aI9
aI7
aI16
aI8
aa(lp1170
I0
aI1
aI4
aI3
aI2
aI13
aI9
aI5
aI10
aI11
aI6
aI12
aI7
aI8
aa(lp1171
I9
aI12
aI2
aI1
aI3
aI10
aI8
aI5
aI13
aI4
aI0
aI11
aI6
aI14
aI7
aa(lp1172
I0
aI1
aa(lp1173
I11
aI10
aI0
aI12
aI3
aI5
aI15
aI9
aI22
aI20
aI1
aI13
aI14
aI7
aI2
aI19
aI18
aI17
aI16
aI21
aI4
aI8
aI6
aa(lp1174
I3
aI0
aI4
aI15
aI7
aI5
aI9
aI8
aI6
aI14
aI17
aI16
aI1
aI18
aI19
aI10
aI12
aI13
aI11
aI2
aa(lp1175
I24
aI16
aI6
aI5
aI12
aI17
aI20
aI14
aI13
aI11
aI7
aI10
aI0
aI3
aI25
aI19
aI18
aI1
aI4
aI21
aI15
aI9
aI2
aI8
aI23
aI22
aa(lp1176
I2
aI4
aI7
aI0
aI6
aI1
aI3
aI5
aa(lp1177
I1
aI0
aI5
aI2
aI4
aI3
aa(lp1178
I5
aI6
aI3
aI9
aI11
aI8
aI10
aI4
aI2
aI7
aI1
aI0
aa(lp1179
I3
aI7
aI2
aI5
aI1
aI0
aI8
aI4
aI14
aI13
aI12
aI11
aI10
aI6
aI9
aa(lp1180
I1
aI0
aa(lp1181
I0
aa(lp1182
I34
aI32
aI51
aI54
aI19
aI18
aI56
aI30
aI57
aI8
aI45
aI39
aI33
aI49
aI47
aI4
aI58
aI17
aI27
aI43
aI41
aI53
aI44
aI23
aI25
aI15
aI48
aI42
aI9
aI46
aI26
aI7
aI31
aI36
aI14
aI1
aI12
aI29
aI24
aI10
aI40
aI5
aI20
aI52
aI55
aI35
aI50
aI6
aI11
aI3
aI38
aI16
aI13
aI21
aI37
aI22
aI28
aI2
aI0
aa(lp1183
I4
aI10
aI11
aI5
aI3
aI9
aI6
aI7
aI12
aI8
aI15
aI19
aI20
aI21
aI13
aI16
aI0
aI2
aI17
aI14
aI1
aI18
aa(lp1184
I12
aI8
aI0
aI4
aI13
aI15
aI10
aI5
aI9
aI14
aI6
aI16
aI11
aI17
aI1
aI7
aI2
aI3
aa(lp1185
I2
aI1
aI3
aI0
aa(lp1186
I2
aI0
aI3
aI4
aI1
aa(lp1187
I0
aa(lp1188
I3
aI7
aI5
aI1
aI4
aI8
aI6
aI0
aI2
aa(lp1189
I3
aI38
aI9
aI37
aI30
aI15
aI5
aI0
aI22
aI11
aI31
aI28
aI33
aI12
aI10
aI17
aI2
aI44
aI24
aI18
aI35
aI39
aI27
aI20
aI40
aI43
aI23
aI1
aI29
aI32
aI42
aI41
aI34
aI6
aI14
aI45
aI16
aI21
aI4
aI19
aI26
aI7
aI36
aI13
aI25
aI8
aa(lp1190
I0
aa(lp1191
I2
aI0
aI1
aa(lp1192
I0
aI21
aI20
aI23
aI19
aI16
aI7
aI18
aI17
aI1
aI8
aI5
aI11
aI22
aI24
aI25
aI13
aI9
aI10
aI14
aI3
aI2
aI4
aI12
aI15
aI6
aa(lp1193
I0
aI8
aI1
aI3
aI6
aI4
aI10
aI9
aI11
aI7
aI2
aI5
aa(lp1194
I8
aI12
aI11
aI3
aI13
aI1
aI4
aI0
aI5
aI6
aI2
aI10
aI9
aI7
aa(lp1195
I4
aI18
aI0
aI30
aI23
aI17
aI1
aI13
aI24
aI5
aI26
aI31
aI21
aI34
aI38
aI32
aI36
aI19
aI35
aI2
aI3
aI9
aI14
aI22
aI28
aI37
aI33
aI27
aI7
aI12
aI20
aI10
aI8
aI29
aI25
aI11
aI15
aI16
aI6
aa(lp1196
I6
aI8
aI3
aI9
aI10
aI0
aI5
aI7
aI1
aI2
aI4
aa(lp1197
I2
aI13
aI1
aI15
aI16
aI14
aI9
aI8
aI17
aI11
aI10
aI7
aI4
aI12
aI6
aI5
aI0
aI3
aa(lp1198
I32
aI8
aI25
aI4
aI19
aI28
aI27
aI36
aI29
aI31
aI3
aI10
aI22
aI6
aI37
aI17
aI9
aI18
aI13
aI24
aI34
aI30
aI26
aI5
aI1
aI38
aI12
aI16
aI7
aI33
aI14
aI15
aI39
aI11
aI21
aI20
aI35
aI23
aI0
aI2
aa(lp1199
I19
aI9
aI14
aI12
aI3
aI5
aI8
aI13
aI0
aI4
aI15
aI6
aI17
aI2
aI18
aI11
aI7
aI10
aI16
aI1
aa(lp1200
I5
aI6
aI1
aI7
aI2
aI3
aI4
aI0
aa(lp1201
I4
aI1
aI6
aI0
aI3
aI5
aI2
aa(lp1202
I3
aI17
aI15
aI16
aI14
aI6
aI5
aI0
aI13
aI9
aI4
aI10
aI8
aI12
aI2
aI11
aI1
aI7
aa(lp1203
I0
aI6
aI3
aI2
aI7
aI5
aI1
aI4
aa(lp1204
I3
aI2
aI0
aI7
aI8
aI5
aI1
aI6
aI4
aa(lp1205
I1
aI24
aI6
aI0
aI21
aI13
aI27
aI16
aI12
aI4
aI23
aI28
aI3
aI22
aI25
aI33
aI14
aI26
aI34
aI20
aI19
aI18
aI17
aI11
aI5
aI31
aI7
aI9
aI30
aI2
aI32
aI15
aI10
aI8
aI29
aa(lp1206
I11
aI7
aI4
aI1
aI2
aI6
aI12
aI9
aI8
aI5
aI0
aI10
aI3
aa(lp1207
I0
aI1
aa(lp1208
I14
aI13
aI4
aI3
aI7
aI10
aI8
aI9
aI23
aI22
aI6
aI2
aI17
aI24
aI20
aI15
aI5
aI0
aI1
aI18
aI19
aI11
aI21
aI16
aI12
aa(lp1209
I7
aI1
aI6
aI4
aI13
aI8
aI9
aI2
aI11
aI15
aI0
aI12
aI10
aI3
aI5
aI14
aa(lp1210
I4
aI5
aI3
aI16
aI15
aI11
aI10
aI1
aI17
aI9
aI13
aI7
aI0
aI6
aI2
aI14
aI12
aI8
aa(lp1211
I3
aI0
aI8
aI4
aI1
aI7
aI6
aI5
aI2
aa(lp1212
I3
aI5
aI2
aI8
aI11
aI4
aI1
aI10
aI9
aI0
aI7
aI6
aa(lp1213
I12
aI2
aI6
aI9
aI10
aI5
aI4
aI8
aI0
aI11
aI7
aI3
aI1
aa(lp1214
I1
aI4
aI12
aI24
aI5
aI14
aI17
aI0
aI2
aI3
aI15
aI21
aI22
aI6
aI23
aI10
aI13
aI8
aI26
aI20
aI25
aI16
aI9
aI7
aI19
aI18
aI11
aa(lp1215
I0
aI7
aI4
aI3
aI2
aI8
aI6
aI5
aI1
aa(lp1216
I5
aI8
aI2
aI1
aI17
aI13
aI12
aI14
aI15
aI7
aI10
aI9
aI11
aI0
aI16
aI3
aI6
aI4
aa(lp1217
I10
aI9
aI12
aI11
aI17
aI16
aI8
aI4
aI3
aI0
aI14
aI13
aI5
aI15
aI7
aI2
aI18
aI6
aI1
aa(lp1218
I2
aI1
aI0
aI6
aI5
aI4
aI3
aI8
aI7
aa(lp1219
I12
aI32
aI31
aI20
aI21
aI10
aI18
aI19
aI30
aI15
aI9
aI4
aI6
aI0
aI27
aI24
aI8
aI23
aI13
aI26
aI28
aI16
aI3
aI1
aI22
aI25
aI17
aI11
aI2
aI7
aI5
aI14
aI29
aa(lp1220
I32
aI30
aI26
aI20
aI4
aI0
aI31
aI28
aI22
aI18
aI17
aI14
aI3
aI27
aI15
aI13
aI25
aI19
aI7
aI16
aI12
aI11
aI9
aI5
aI6
aI29
aI24
aI21
aI10
aI2
aI1
aI23
aI8
aa(lp1221
I20
aI23
aI18
aI19
aI6
aI5
aI22
aI10
aI12
aI21
aI26
aI1
aI8
aI2
aI24
aI9
aI11
aI7
aI25
aI13
aI17
aI14
aI0
aI15
aI4
aI3
aI16
aa(lp1222
I2
aI8
aI4
aI5
aI0
aI10
aI9
aI1
aI3
aI7
aI6
aa(lp1223
I1
aI2
aI7
aI5
aI8
aI3
aI9
aI4
aI6
aI0
aa(lp1224
I4
aI5
aI3
aI10
aI8
aI11
aI7
aI0
aI1
aI9
aI2
aI6
aa(lp1225
I7
aI3
aI1
aI2
aI0
aI8
aI5
aI6
aI9
aI4
aa(lp1226
I1
aI0
aa(lp1227
I1
aI4
aI2
aI3
aI0
aa(lp1228
I6
aI0
aI5
aI1
aI2
aI3
aI4
aa(lp1229
I2
aI0
aI7
aI8
aI3
aI1
aI6
aI5
aI4
aI9
aa(lp1230
I2
aI1
aI0
aa(lp1231
I11
aI1
aI4
aI17
aI5
aI10
aI22
aI21
aI2
aI25
aI0
aI15
aI13
aI39
aI24
aI23
aI6
aI36
aI20
aI45
aI35
aI18
aI12
aI8
aI38
aI37
aI9
aI51
aI48
aI7
aI30
aI47
aI33
aI50
aI14
aI34
aI26
aI16
aI31
aI3
aI28
aI43
aI29
aI32
aI52
aI41
aI42
aI46
aI19
aI27
aI49
aI44
aI40
aa(lp1232
I1
aI0
aa(lp1233
I23
aI21
aI24
aI14
aI9
aI29
aI7
aI13
aI22
aI5
aI17
aI0
aI31
aI3
aI27
aI32
aI1
aI19
aI6
aI28
aI4
aI20
aI30
aI15
aI11
aI26
aI12
aI2
aI18
aI16
aI25
aI10
aI8
aa(lp1234
I3
aI0
aI6
aI1
aI5
aI4
aI2
aa(lp1235
I2
aI1
aI10
aI0
aI12
aI9
aI6
aI3
aI11
aI5
aI4
aI8
aI7
aa(lp1236
I29
aI1
aI21
aI20
aI13
aI24
aI9
aI0
aI15
aI11
aI17
aI19
aI23
aI30
aI8
aI14
aI6
aI5
aI28
aI18
aI10
aI12
aI4
aI2
aI16
aI26
aI33
aI32
aI31
aI7
aI3
aI27
aI22
aI25
aa(lp1237
I4
aI24
aI20
aI14
aI25
aI3
aI0
aI9
aI23
aI10
aI18
aI21
aI17
aI11
aI22
aI19
aI1
aI6
aI15
aI2
aI7
aI5
aI13
aI12
aI8
aI16
aa(lp1238
I0
aI10
aI6
aI11
aI3
aI9
aI7
aI4
aI5
aI12
aI2
aI1
aI8
aa(lp1239
I16
aI6
aI13
aI5
aI20
aI9
aI7
aI11
aI10
aI15
aI14
aI3
aI1
aI18
aI12
aI4
aI19
aI17
aI8
aI21
aI0
aI2
aa(lp1240
I4
aI5
aI7
aI2
aI9
aI10
aI0
aI3
aI1
aI8
aI6
aa(lp1241
I0
aI2
aI3
aI4
aI6
aI5
aI1
aI7
aI8
aa(lp1242
I2
aI19
aI20
aI17
aI0
aI24
aI21
aI3
aI18
aI6
aI1
aI5
aI9
aI12
aI23
aI15
aI4
aI11
aI16
aI13
aI14
aI7
aI10
aI8
aI22
aa(lp1243
I0
aI1
aa(lp1244
I27
aI22
aI28
aI23
aI31
aI15
aI26
aI5
aI19
aI21
aI29
aI41
aI14
aI32
aI9
aI43
aI13
aI38
aI7
aI33
aI1
aI20
aI0
aI24
aI10
aI8
aI34
aI36
aI3
aI18
aI30
aI37
aI4
aI12
aI39
aI16
aI11
aI17
aI42
aI2
aI40
aI35
aI25
aI6
aa(lp1245
I4
aI9
aI10
aI7
aI1
aI2
aI5
aI3
aI6
aI8
aI0
aa(lp1246
I5
aI1
aI6
aI0
aI4
aI3
aI2
aI7
aa(lp1247
I1
aI6
aI2
aI3
aI7
aI4
aI5
aI0
aa(lp1248
I0
aa(lp1249
I1
aI5
aI8
aI7
aI6
aI2
aI4
aI0
aI3
aa(lp1250
I3
aI12
aI8
aI2
aI0
aI11
aI1
aI5
aI6
aI9
aI10
aI7
aI4
aa(lp1251
I1
aI9
aI5
aI4
aI3
aI2
aI0
aI10
aI8
aI7
aI6
aa(lp1252
I1
aI16
aI4
aI12
aI2
aI15
aI10
aI8
aI7
aI6
aI13
aI11
aI9
aI3
aI0
aI17
aI14
aI5
aa(lp1253
I23
aI3
aI10
aI18
aI21
aI16
aI0
aI9
aI4
aI19
aI5
aI20
aI15
aI2
aI11
aI12
aI1
aI17
aI8
aI7
aI22
aI14
aI13
aI6
aa(lp1254
I15
aI21
aI7
aI13
aI14
aI24
aI0
aI20
aI23
aI1
aI2
aI11
aI3
aI10
aI16
aI5
aI8
aI19
aI4
aI18
aI12
aI9
aI22
aI6
aI17
aa(lp1255
I7
aI5
aI2
aI8
aI9
aI3
aI6
aI4
aI1
aI0
aa(lp1256
I4
aI1
aI8
aI9
aI6
aI11
aI0
aI2
aI10
aI7
aI3
aI5
aa(lp1257
I4
aI5
aI15
aI0
aI2
aI8
aI16
aI9
aI14
aI6
aI12
aI13
aI7
aI3
aI1
aI10
aI11
aa(lp1258
I9
aI0
aI10
aI12
aI17
aI8
aI19
aI11
aI15
aI20
aI21
aI18
aI7
aI6
aI5
aI2
aI16
aI1
aI13
aI4
aI3
aI14
aa(lp1259
I3
aI2
aI0
aI6
aI4
aI12
aI17
aI10
aI8
aI18
aI9
aI19
aI13
aI15
aI20
aI7
aI24
aI21
aI23
aI5
aI1
aI22
aI16
aI11
aI14
aa(lp1260
I26
aI0
aI24
aI29
aI21
aI19
aI16
aI25
aI23
aI22
aI20
aI10
aI31
aI14
aI8
aI9
aI3
aI2
aI5
aI27
aI28
aI13
aI12
aI30
aI6
aI1
aI17
aI4
aI15
aI11
aI18
aI7
aa(lp1261
I1
aI6
aI11
aI3
aI8
aI12
aI5
aI10
aI7
aI2
aI4
aI0
aI9
aa(lp1262
I0
aI3
aI14
aI13
aI15
aI4
aI7
aI11
aI2
aI6
aI10
aI8
aI12
aI1
aI5
aI9
aa(lp1263
I0
aI2
aI4
aI5
aI3
aI6
aI1
aa(lp1264
I2
aI5
aI4
aI3
aI6
aI0
aI1
aa(lp1265
I18
aI9
aI5
aI4
aI11
aI15
aI14
aI3
aI0
aI12
aI10
aI1
aI2
aI17
aI6
aI7
aI16
aI13
aI8
aa(lp1266
I3
aI1
aI0
aI2
aI4
aa(lp1267
I6
aI7
aI5
aI0
aI8
aI4
aI1
aI3
aI2
aa(lp1268
I6
aI11
aI12
aI17
aI3
aI1
aI10
aI14
aI2
aI4
aI13
aI7
aI16
aI0
aI8
aI5
aI15
aI9
aa(lp1269
I3
aI5
aI6
aI0
aI2
aI4
aI1
aa(lp1270
I16
aI9
aI0
aI8
aI10
aI4
aI3
aI21
aI12
aI7
aI15
aI5
aI19
aI11
aI22
aI2
aI18
aI13
aI1
aI17
aI20
aI14
aI6
aa(lp1271
I4
aI3
aI0
aI2
aI1
aI6
aI7
aI5
aa(lp1272
I3
aI4
aI8
aI14
aI9
aI5
aI2
aI11
aI1
aI6
aI15
aI12
aI0
aI7
aI13
aI10
aa(lp1273
I8
aI9
aI0
aI2
aI4
aI3
aI13
aI12
aI11
aI10
aI5
aI1
aI7
aI6
aa(lp1274
I7
aI0
aI6
aI1
aI2
aI8
aI12
aI5
aI9
aI11
aI3
aI10
aI4
aa(lp1275
I4
aI3
aI5
aI23
aI22
aI7
aI6
aI16
aI0
aI21
aI32
aI18
aI24
aI8
aI29
aI30
aI20
aI33
aI14
aI2
aI13
aI19
aI12
aI28
aI17
aI1
aI11
aI9
aI27
aI10
aI31
aI15
aI25
aI26
aa(lp1276
I4
aI3
aI2
aI1
aI0
aa(lp1277
I1
aI7
aI0
aI3
aI6
aI2
aI8
aI4
aI5
aa(lp1278
I6
aI0
aI5
aI1
aI3
aI12
aI2
aI4
aI11
aI9
aI10
aI8
aI7
aI13
aa(lp1279
I7
aI6
aI5
aI4
aI3
aI2
aI1
aI0
aa(lp1280
I4
aI0
aI7
aI8
aI2
aI9
aI1
aI3
aI11
aI6
aI5
aI10
aa(lp1281
I5
aI0
aI10
aI7
aI3
aI9
aI1
aI6
aI2
aI8
aI4
aa(lp1282
I13
aI10
aI4
aI11
aI9
aI7
aI6
aI3
aI12
aI8
aI5
aI2
aI1
aI0
aa(lp1283
I12
aI42
aI43
aI9
aI41
aI40
aI25
aI33
aI10
aI32
aI21
aI7
aI30
aI24
aI1
aI11
aI38
aI3
aI35
aI16
aI28
aI22
aI8
aI15
aI14
aI26
aI36
aI5
aI31
aI39
aI6
aI13
aI18
aI19
aI29
aI27
aI20
aI0
aI2
aI23
aI34
aI17
aI4
aI37
aa(lp1284
I2
aI4
aI0
aI3
aI1
aa(lp1285
I1
aI2
aI4
aI5
aI3
aI0
aa(lp1286
I7
aI10
aI35
aI8
aI20
aI34
aI41
aI26
aI18
aI15
aI38
aI3
aI39
aI27
aI22
aI30
aI5
aI37
aI23
aI21
aI14
aI9
aI36
aI19
aI40
aI25
aI16
aI33
aI24
aI4
aI1
aI12
aI42
aI17
aI2
aI11
aI28
aI29
aI0
aI31
aI6
aI32
aI13
aa(lp1287
I0
aI3
aI1
aI2
aa(lp1288
I2
aI0
aI3
aI4
aI6
aI5
aI1
aa(lp1289
I16
aI4
aI9
aI12
aI1
aI11
aI2
aI15
aI7
aI18
aI26
aI10
aI30
aI13
aI28
aI20
aI29
aI8
aI22
aI27
aI25
aI24
aI3
aI6
aI19
aI0
aI14
aI5
aI21
aI23
aI17
aa(lp1290
I20
aI41
aI39
aI23
aI6
aI38
aI15
aI37
aI3
aI21
aI12
aI22
aI8
aI36
aI4
aI35
aI40
aI32
aI27
aI7
aI14
aI11
aI26
aI0
aI31
aI34
aI18
aI17
aI33
aI25
aI30
aI16
aI13
aI28
aI10
aI24
aI2
aI1
aI29
aI19
aI9
aI5
aa(lp1291
I15
aI0
aI13
aI14
aI12
aI1
aI16
aI11
aI5
aI3
aI17
aI18
aI10
aI9
aI6
aI8
aI2
aI7
aI4
aa(lp1292
I6
aI4
aI2
aI10
aI9
aI7
aI5
aI8
aI3
aI0
aI1
aa(lp1293
I0
aI2
aI1
aI4
aI3
aa(lp1294
I2
aI4
aI8
aI7
aI11
aI3
aI0
aI5
aI1
aI12
aI10
aI6
aI9
aI13
aa(lp1295
I7
aI17
aI5
aI0
aI4
aI6
aI8
aI2
aI12
aI11
aI16
aI3
aI10
aI1
aI15
aI13
aI14
aI9
aa(lp1296
I0
aI2
aI1
aI7
aI6
aI4
aI5
aI3
aI8
aa(lp1297
I11
aI17
aI16
aI3
aI7
aI13
aI1
aI9
aI5
aI4
aI18
aI6
aI10
aI12
aI20
aI19
aI14
aI0
aI15
aI8
aI2
aa(lp1298
I3
aI1
aI6
aI8
aI12
aI4
aI2
aI15
aI7
aI13
aI11
aI17
aI16
aI10
aI14
aI9
aI5
aI0
aa(lp1299
I5
aI4
aI3
aI2
aI1
aI0
aa(lp1300
I2
aI0
aI5
aI4
aI22
aI34
aI12
aI18
aI37
aI28
aI9
aI13
aI23
aI27
aI20
aI39
aI10
aI32
aI25
aI16
aI31
aI17
aI21
aI8
aI19
aI29
aI11
aI33
aI14
aI36
aI26
aI38
aI30
aI24
aI15
aI6
aI7
aI3
aI35
aI1
aa(lp1301
I1
aI14
aI12
aI4
aI13
aI18
aI5
aI16
aI9
aI2
aI10
aI3
aI8
aI0
aI11
aI17
aI15
aI7
aI6
aa(lp1302
I11
aI7
aI17
aI38
aI39
aI10
aI32
aI37
aI34
aI12
aI9
aI24
aI13
aI26
aI23
aI41
aI28
aI31
aI27
aI19
aI40
aI3
aI0
aI25
aI36
aI14
aI5
aI6
aI20
aI16
aI4
aI18
aI29
aI35
aI33
aI22
aI30
aI2
aI8
aI1
aI15
aI21
aa(lp1303
I5
aI4
aI3
aI2
aI1
aI0
aa(lp1304
I3
aI5
aI0
aI1
aI22
aI17
aI14
aI2
aI9
aI12
aI15
aI8
aI6
aI13
aI10
aI19
aI16
aI20
aI21
aI11
aI18
aI23
aI24
aI7
aI4
aa(lp1305
I1
aI6
aI0
aI5
aI2
aI4
aI3
aI7
aa(lp1306
I10
aI30
aI18
aI0
aI5
aI17
aI21
aI31
aI11
aI13
aI6
aI1
aI7
aI12
aI23
aI3
aI4
aI2
aI9
aI27
aI24
aI15
aI28
aI16
aI25
aI22
aI20
aI29
aI26
aI19
aI14
aI8
aa(lp1307
I12
aI11
aI4
aI1
aI5
aI13
aI6
aI7
aI8
aI0
aI10
aI9
aI3
aI2
aa(lp1308
I14
aI26
aI12
aI11
aI2
aI7
aI21
aI17
aI1
aI9
aI10
aI20
aI6
aI13
aI23
aI19
aI4
aI15
aI24
aI5
aI22
aI3
aI27
aI16
aI8
aI25
aI18
aI0
aa(lp1309
I9
aI8
aI6
aI5
aI3
aI2
aI1
aI10
aI7
aI4
aI0
aa(lp1310
I0
aI3
aI2
aI1
aa(lp1311
I2
aI0
aI4
aI3
aI1
aa(lp1312
I11
aI3
aI0
aI2
aI9
aI5
aI10
aI13
aI8
aI4
aI1
aI12
aI7
aI14
aI6
aa(lp1313
I1
aI2
aI3
aI0
aI7
aI6
aI4
aI5
aa(lp1314
I1
aI0
aa(lp1315
I23
aI7
aI30
aI26
aI27
aI24
aI1
aI3
aI18
aI15
aI11
aI22
aI33
aI0
aI13
aI8
aI6
aI17
aI12
aI16
aI9
aI32
aI20
aI19
aI10
aI5
aI29
aI25
aI28
aI14
aI31
aI21
aI4
aI2
aa(lp1316
I2
aI3
aI0
aI1
aa(lp1317
I1
aI0
aa(lp1318
I0
aI3
aI1
aI2
aa(lp1319
I3
aI1
aI0
aI4
aI2
aa(lp1320
I1
aI10
aI7
aI9
aI11
aI3
aI12
aI0
aI2
aI8
aI6
aI13
aI5
aI14
aI4
aa(lp1321
I0
aa(lp1322
I8
aI3
aI10
aI2
aI4
aI6
aI9
aI5
aI1
aI0
aI7
aa(lp1323
I3
aI6
aI2
aI1
aI0
aI8
aI7
aI5
aI4
aa(lp1324
I12
aI8
aI6
aI22
aI13
aI0
aI11
aI20
aI29
aI1
aI16
aI10
aI5
aI21
aI24
aI27
aI26
aI4
aI14
aI28
aI18
aI9
aI25
aI19
aI15
aI7
aI3
aI23
aI17
aI2
aa(lp1325
I9
aI1
aI11
aI0
aI4
aI3
aI5
aI8
aI13
aI6
aI12
aI7
aI10
aI2
aa(lp1326
I0
aI1
aI3
aI4
aI2
aI6
aI5
aa(lp1327
I0
aI2
aI1
aa(lp1328
I0
aI4
aI5
aI3
aI2
aI1
aa(lp1329
I1
aI16
aI0
aI17
aI12
aI10
aI4
aI11
aI9
aI2
aI5
aI7
aI15
aI14
aI3
aI13
aI8
aI6
aa(lp1330
I10
aI19
aI3
aI20
aI2
aI12
aI0
aI15
aI9
aI11
aI13
aI4
aI5
aI7
aI18
aI17
aI1
aI16
aI8
aI14
aI6
aa(lp1331
I3
aI8
aI7
aI6
aI1
aI5
aI4
aI0
aI2
aI11
aI10
aI12
aI9
aa(lp1332
I4
aI3
aI6
aI2
aI10
aI7
aI5
aI1
aI9
aI0
aI8
aa(lp1333
I4
aI7
aI8
aI10
aI2
aI15
aI14
aI13
aI6
aI1
aI3
aI5
aI11
aI9
aI12
aI0
aa(lp1334
I4
aI8
aI11
aI9
aI22
aI6
aI10
aI20
aI18
aI17
aI14
aI12
aI0
aI15
aI2
aI21
aI19
aI7
aI3
aI5
aI16
aI13
aI1
aa(lp1335
I7
aI8
aI4
aI14
aI15
aI10
aI13
aI9
aI3
aI6
aI16
aI11
aI5
aI12
aI0
aI1
aI18
aI2
aI17
aa(lp1336
I12
aI16
aI0
aI14
aI1
aI2
aI9
aI3
aI7
aI8
aI18
aI10
aI13
aI19
aI15
aI6
aI17
aI5
aI4
aI11
aa(lp1337
I0
aI3
aI2
aI1
aI5
aI4
aa(lp1338
I17
aI5
aI21
aI4
aI8
aI20
aI7
aI10
aI9
aI19
aI14
aI22
aI15
aI23
aI12
aI13
aI26
aI24
aI6
aI1
aI2
aI3
aI0
aI16
aI25
aI18
aI11
aa(lp1339
I5
aI9
aI1
aI0
aI4
aI10
aI8
aI2
aI3
aI7
aI6
aa(lp1340
I0
aI1
aI2
aa(lp1341
I26
aI23
aI0
aI25
aI18
aI21
aI12
aI13
aI19
aI24
aI15
aI14
aI22
aI10
aI20
aI11
aI16
aI2
aI17
aI6
aI4
aI8
aI7
aI5
aI9
aI3
aI1
aa(lp1342
I4
aI22
aI9
aI15
aI5
aI6
aI11
aI12
aI10
aI13
aI14
aI17
aI1
aI19
aI3
aI20
aI16
aI0
aI21
aI7
aI2
aI18
aI8
aa(lp1343
I11
aI5
aI6
aI3
aI9
aI4
aI12
aI7
aI2
aI10
aI1
aI8
aI0
aa(lp1344
I0
aI2
aI1
aa(lp1345
I9
aI10
aI4
aI13
aI2
aI0
aI3
aI11
aI6
aI1
aI5
aI7
aI12
aI8
aa(lp1346
I10
aI9
aI8
aI7
aI6
aI5
aI4
aI3
aI2
aI1
aI0
aa(lp1347
I4
aI8
aI5
aI2
aI1
aI6
aI7
aI3
aI0
aa(lp1348
I7
aI26
aI20
aI17
aI0
aI5
aI14
aI19
aI1
aI22
aI4
aI10
aI28
aI25
aI21
aI15
aI13
aI8
aI12
aI3
aI30
aI24
aI6
aI31
aI23
aI29
aI32
aI27
aI16
aI2
aI9
aI33
aI18
aI11
aI34
aa(lp1349
I27
aI2
aI8
aI21
aI4
aI28
aI20
aI19
aI7
aI23
aI22
aI15
aI0
aI16
aI30
aI29
aI25
aI24
aI17
aI14
aI13
aI12
aI11
aI9
aI6
aI3
aI26
aI18
aI1
aI10
aI5
aa(lp1350
I1
aI4
aI3
aI0
aI2
aa(lp1351
I0
aI21
aI9
aI19
aI3
aI16
aI6
aI7
aI22
aI23
aI17
aI20
aI13
aI1
aI14
aI15
aI11
aI5
aI2
aI4
aI18
aI8
aI12
aI10
aa(lp1352
I6
aI2
aI7
aI0
aI8
aI1
aI4
aI5
aI3
aa(lp1353
I10
aI7
aI12
aI0
aI4
aI9
aI5
aI6
aI13
aI8
aI11
aI1
aI3
aI2
aa(lp1354
I0
aI21
aI22
aI9
aI2
aI15
aI13
aI3
aI14
aI19
aI8
aI20
aI16
aI10
aI18
aI11
aI12
aI17
aI7
aI5
aI4
aI1
aI6
aa(lp1355
I0
aI2
aI3
aI4
aI1
aa(lp1356
I5
aI1
aI2
aI4
aI6
aI3
aI0
aa(lp1357
I0
aI2
aI1
aI3
aa(lp1358
I7
aI0
aI1
aI8
aI2
aI6
aI5
aI4
aI3
aa(lp1359
I3
aI11
aI17
aI1
aI6
aI13
aI12
aI2
aI8
aI10
aI4
aI14
aI9
aI5
aI19
aI0
aI15
aI7
aI18
aI16
aa(lp1360
I12
aI9
aI17
aI8
aI3
aI1
aI16
aI10
aI4
aI15
aI2
aI5
aI11
aI7
aI6
aI14
aI0
aI13
aa(lp1361
I2
aI0
aI5
aI1
aI4
aI3
aa(lp1362
I3
aI8
aI5
aI7
aI1
aI2
aI0
aI4
aI6
aa(lp1363
I5
aI14
aI15
aI12
aI8
aI0
aI4
aI6
aI1
aI13
aI9
aI3
aI16
aI11
aI10
aI2
aI7
aa(lp1364
I1
aI13
aI0
aI3
aI2
aI7
aI9
aI14
aI5
aI11
aI6
aI4
aI8
aI12
aI10
aa(lp1365
I3
aI1
aI7
aI0
aI2
aI8
aI5
aI4
aI6
aa(lp1366
I3
aI2
aI1
aI0
aa(lp1367
I3
aI16
aI12
aI10
aI14
aI0
aI2
aI11
aI13
aI5
aI21
aI4
aI15
aI7
aI8
aI27
aI20
aI6
aI19
aI17
aI23
aI25
aI24
aI1
aI28
aI22
aI9
aI26
aI18
aa(lp1368
I0
aI2
aI13
aI6
aI7
aI11
aI12
aI1
aI8
aI3
aI4
aI5
aI9
aI10
aa(lp1369
I6
aI1
aI33
aI15
aI26
aI17
aI14
aI32
aI8
aI28
aI4
aI25
aI5
aI21
aI12
aI30
aI27
aI2
aI20
aI3
aI10
aI19
aI29
aI9
aI24
aI0
aI18
aI16
aI22
aI11
aI31
aI23
aI13
aI7
aa(lp1370
I7
aI9
aI14
aI10
aI12
aI13
aI0
aI11
aI4
aI18
aI6
aI5
aI20
aI16
aI15
aI1
aI2
aI17
aI3
aI19
aI8
aa(lp1371
I2
aI0
aI3
aI1
aa(lp1372
I2
aI4
aI6
aI1
aI5
aI3
aI0
aa(lp1373
I11
aI2
aI4
aI1
aI9
aI6
aI3
aI13
aI14
aI12
aI10
aI8
aI5
aI7
aI0
aa(lp1374
I15
aI11
aI2
aI14
aI10
aI5
aI13
aI12
aI8
aI1
aI3
aI4
aI0
aI6
aI7
aI9
aa(lp1375
I1
aI3
aI7
aI13
aI9
aI0
aI21
aI10
aI23
aI24
aI17
aI8
aI5
aI22
aI6
aI4
aI11
aI15
aI12
aI14
aI16
aI20
aI2
aI19
aI18
aa(lp1376
I1
aI2
aI3
aI0
aa(lp1377
I5
aI8
aI13
aI10
aI11
aI19
aI7
aI16
aI12
aI6
aI23
aI18
aI14
aI4
aI21
aI2
aI17
aI20
aI15
aI22
aI0
aI3
aI1
aI9
aa(lp1378
I3
aI1
aI0
aI2
aa(lp1379
I11
aI10
aI4
aI8
aI5
aI3
aI0
aI2
aI12
aI7
aI9
aI6
aI1
aa(lp1380
I16
aI4
aI1
aI13
aI21
aI19
aI15
aI9
aI7
aI3
aI14
aI22
aI17
aI12
aI5
aI11
aI0
aI8
aI10
aI18
aI6
aI20
aI2
aa(lp1381
I1
aI2
aI0
aa(lp1382
I3
aI1
aI4
aI2
aI0
aI5
aa(lp1383
I0
aa(lp1384
I0
aI13
aI16
aI8
aI7
aI3
aI4
aI20
aI12
aI6
aI18
aI2
aI19
aI17
aI15
aI1
aI14
aI9
aI5
aI11
aI10
aa(lp1385
I1
aI11
aI6
aI9
aI3
aI8
aI2
aI4
aI10
aI7
aI5
aI0
aa(lp1386
I1
aI0
aI2
aa(lp1387
I8
aI10
aI4
aI12
aI11
aI0
aI3
aI1
aI15
aI6
aI14
aI2
aI13
aI9
aI7
aI5
aa(lp1388
I0
aI7
aI2
aI4
aI6
aI3
aI5
aI1
aI8
aa(lp1389
I8
aI6
aI0
aI12
aI7
aI2
aI5
aI10
aI9
aI11
aI1
aI4
aI15
aI14
aI13
aI16
aI3
aa(lp1390
I0
aI2
aI12
aI10
aI7
aI1
aI13
aI3
aI5
aI4
aI6
aI11
aI9
aI8
aa(lp1391
I0
aI3
aI4
aI2
aI1
aa(lp1392
I0
aI1
aI2
aa(lp1393
I1
aI0
aI5
aI3
aI2
aI6
aI4
aa(lp1394
I0
aI1
aI11
aI6
aI10
aI9
aI5
aI12
aI2
aI7
aI8
aI4
aI3
aa(lp1395
I0
aI5
aI3
aI7
aI4
aI1
aI6
aI2
aa(lp1396
I5
aI2
aI6
aI3
aI1
aI7
aI0
aI4
aa(lp1397
I2
aI0
aI8
aI6
aI3
aI4
aI1
aI9
aI7
aI5
aa(lp1398
I2
aI1
aI0
aI6
aI4
aI5
aI3
aa(lp1399
I0
aI2
aI1
aa(lp1400
I3
aI0
aI4
aI15
aI9
aI5
aI13
aI11
aI10
aI6
aI14
aI8
aI7
aI2
aI1
aI12
aa(lp1401
I0
aI12
aI1
aI7
aI9
aI14
aI3
aI23
aI5
aI15
aI4
aI2
aI21
aI13
aI10
aI18
aI6
aI22
aI20
aI11
aI17
aI19
aI24
aI16
aI8
aa(lp1402
I23
aI0
aI4
aI6
aI1
aI21
aI3
aI7
aI26
aI5
aI19
aI15
aI2
aI14
aI13
aI12
aI25
aI18
aI9
aI20
aI11
aI16
aI17
aI24
aI10
aI22
aI8
aa(lp1403
I13
aI5
aI3
aI9
aI1
aI16
aI15
aI8
aI11
aI10
aI4
aI6
aI14
aI7
aI0
aI2
aI12
aa(lp1404
I6
aI19
aI18
aI1
aI10
aI0
aI16
aI17
aI13
aI12
aI4
aI14
aI8
aI5
aI11
aI7
aI15
aI2
aI3
aI9
aa(lp1405
I2
aI1
aI5
aI6
aI4
aI3
aI0
aa(lp1406
I4
aI3
aI2
aI0
aI1
aI5
aa(lp1407
I7
aI3
aI2
aI9
aI5
aI4
aI6
aI1
aI0
aI8
aa(lp1408
I2
aI0
aI1
aa(lp1409
I10
aI11
aI2
aI3
aI8
aI19
aI15
aI5
aI7
aI12
aI0
aI1
aI4
aI17
aI14
aI18
aI9
aI13
aI16
aI6
aI20
aa(lp1410
I3
aI2
aI0
aI1
aa(lp1411
I0
aI2
aI1
aa(lp1412
I0
aI4
aI1
aI2
aI5
aI3
aa(lp1413
I4
aI3
aI5
aI0
aI1
aI2
aa(lp1414
I10
aI0
aI6
aI9
aI5
aI3
aI1
aI13
aI2
aI4
aI7
aI12
aI11
aI8
aa(lp1415
I0
aI7
aI1
aI4
aI3
aI15
aI11
aI5
aI22
aI19
aI14
aI12
aI13
aI21
aI16
aI20
aI17
aI23
aI18
aI2
aI6
aI8
aI10
aI9
aa(lp1416
I2
aI5
aI4
aI7
aI1
aI3
aI6
aI0
aI8
aI9
aa(lp1417
I6
aI4
aI14
aI0
aI2
aI13
aI9
aI11
aI16
aI7
aI8
aI1
aI15
aI12
aI10
aI3
aI5
aa(lp1418
I9
aI19
aI13
aI28
aI15
aI12
aI24
aI10
aI11
aI23
aI2
aI7
aI33
aI6
aI31
aI14
aI26
aI30
aI32
aI3
aI8
aI5
aI4
aI17
aI29
aI0
aI16
aI25
aI27
aI20
aI18
aI34
aI21
aI22
aI1
aa(lp1419
I1
aI0
aI12
aI26
aI18
aI10
aI14
aI6
aI17
aI7
aI24
aI16
aI5
aI2
aI21
aI4
aI8
aI23
aI13
aI20
aI19
aI15
aI25
aI22
aI3
aI9
aI11
aa(lp1420
I2
aI3
aI0
aI1
aa(lp1421
I1
aI8
aI4
aI5
aI7
aI6
aI2
aI3
aI0
aa(lp1422
I0
aI3
aI1
aI2
aa(lp1423
I7
aI1
aI9
aI16
aI15
aI23
aI21
aI17
aI18
aI14
aI8
aI19
aI20
aI22
aI2
aI4
aI6
aI13
aI5
aI10
aI3
aI0
aI12
aI24
aI11
aa(lp1424
I16
aI12
aI8
aI0
aI7
aI9
aI3
aI14
aI18
aI17
aI11
aI20
aI6
aI2
aI13
aI21
aI15
aI19
aI5
aI1
aI10
aI4
aa(lp1425
I8
aI2
aI3
aI6
aI10
aI11
aI7
aI0
aI4
aI16
aI14
aI12
aI9
aI15
aI13
aI1
aI5
aa(lp1426
I20
aI10
aI13
aI23
aI1
aI7
aI6
aI2
aI21
aI16
aI9
aI15
aI14
aI5
aI8
aI17
aI12
aI18
aI3
aI11
aI19
aI22
aI4
aI0
aa(lp1427
I5
aI0
aI2
aI1
aI9
aI3
aI4
aI10
aI6
aI8
aI7
aa(lp1428
I16
aI6
aI1
aI12
aI8
aI3
aI19
aI13
aI7
aI5
aI17
aI4
aI2
aI9
aI11
aI18
aI0
aI14
aI15
aI10
aI20
aa(lp1429
I7
aI5
aI2
aI9
aI6
aI3
aI1
aI0
aI4
aI8
aa(lp1430
I2
aI4
aI3
aI0
aI1
aI7
aI6
aI5
aa(lp1431
I1
aI0
aa(lp1432
I15
aI18
aI11
aI4
aI0
aI9
aI1
aI16
aI13
aI12
aI5
aI2
aI3
aI10
aI7
aI17
aI19
aI6
aI20
aI14
aI8
aa(lp1433
I5
aI3
aI1
aI0
aI9
aI11
aI8
aI4
aI7
aI10
aI6
aI2
aa(lp1434
I8
aI13
aI9
aI11
aI14
aI7
aI10
aI6
aI15
aI4
aI12
aI2
aI0
aI3
aI5
aI1
aa(lp1435
I6
aI2
aI5
aI4
aI1
aI0
aI7
aI3
aa(lp1436
I2
aI5
aI3
aI0
aI12
aI9
aI6
aI11
aI8
aI4
aI1
aI10
aI7
aa(lp1437
I17
aI0
aI10
aI1
aI4
aI11
aI19
aI15
aI16
aI24
aI7
aI21
aI23
aI22
aI3
aI9
aI2
aI13
aI18
aI8
aI5
aI6
aI14
aI12
aI25
aI20
aa(lp1438
I3
aI2
aI7
aI0
aI6
aI1
aI8
aI4
aI5
aa(lp1439
I7
aI6
aI1
aI0
aI8
aI11
aI3
aI10
aI2
aI4
aI5
aI9
aa(lp1440
I0
aI9
aI1
aI16
aI14
aI3
aI6
aI10
aI8
aI4
aI2
aI19
aI11
aI17
aI13
aI18
aI15
aI7
aI5
aI12
aa(lp1441
I4
aI7
aI18
aI12
aI2
aI9
aI14
aI3
aI17
aI6
aI22
aI1
aI23
aI20
aI15
aI10
aI8
aI19
aI16
aI13
aI5
aI21
aI11
aI0
aa(lp1442
I1
aI4
aI3
aI2
aI0
aa(lp1443
I2
aI0
aI1
aI4
aI3
aa(lp1444
I17
aI22
aI18
aI8
aI20
aI14
aI9
aI10
aI12
aI15
aI0
aI21
aI2
aI16
aI6
aI4
aI1
aI5
aI7
aI11
aI19
aI13
aI3
aa(lp1445
I0
aI7
aI5
aI10
aI1
aI8
aI2
aI9
aI4
aI6
aI3
aa(lp1446
I5
aI4
aI2
aI1
aI0
aI3
aa(lp1447
I8
aI15
aI16
aI17
aI3
aI7
aI24
aI23
aI28
aI20
aI13
aI27
aI25
aI26
aI18
aI14
aI5
aI0
aI6
aI22
aI1
aI19
aI4
aI21
aI2
aI9
aI10
aI11
aI12
aa(lp1448
I8
aI7
aI6
aI5
aI4
aI3
aI2
aI1
aI0
aa(lp1449
I1
aI0
aa(lp1450
I1
aI2
aI5
aI0
aI4
aI3
aa(lp1451
I4
aI8
aI3
aI2
aI13
aI14
aI10
aI6
aI5
aI15
aI1
aI7
aI0
aI12
aI11
aI9
aa(lp1452
I9
aI7
aI5
aI8
aI1
aI11
aI6
aI4
aI12
aI13
aI10
aI3
aI14
aI0
aI2
aa(lp1453
I3
aI2
aI1
aI0
aa(lp1454
I3
aI11
aI0
aI15
aI7
aI6
aI8
aI10
aI25
aI13
aI23
aI12
aI9
aI21
aI1
aI18
aI22
aI24
aI20
aI19
aI2
aI16
aI14
aI17
aI5
aI4
aa(lp1455
I1
aI0
aa(lp1456
I2
aI7
aI0
aI8
aI1
aI3
aI6
aI5
aI4
aa(lp1457
I40
aI7
aI0
aI29
aI32
aI14
aI5
aI26
aI33
aI16
aI2
aI13
aI3
aI15
aI30
aI25
aI31
aI28
aI42
aI10
aI41
aI38
aI35
aI21
aI9
aI39
aI27
aI22
aI19
aI37
aI36
aI24
aI23
aI12
aI11
aI34
aI20
aI6
aI18
aI17
aI8
aI1
aI4
aa(lp1458
I0
aa(lp1459
I2
aI1
aI0
aa(lp1460
I1
aI5
aI4
aI2
aI3
aI0
aa(lp1461
I5
aI12
aI6
aI2
aI0
aI10
aI3
aI4
aI11
aI1
aI7
aI8
aI9
aa(lp1462
I13
aI14
aI12
aI16
aI8
aI10
aI6
aI4
aI1
aI5
aI2
aI0
aI15
aI7
aI11
aI3
aI9
aa(lp1463
I8
aI11
aI0
aI1
aI7
aI9
aI13
aI10
aI16
aI15
aI14
aI3
aI4
aI5
aI12
aI6
aI2
aa(lp1464
I0
aI9
aI5
aI11
aI6
aI7
aI3
aI4
aI8
aI1
aI2
aI10
aa(lp1465
I3
aI11
aI2
aI8
aI1
aI7
aI5
aI6
aI12
aI0
aI9
aI4
aI10
aa(lp1466
I4
aI0
aI2
aI1
aI3
aa(lp1467
I6
aI0
aI7
aI3
aI4
aI1
aI9
aI8
aI5
aI2
aa(lp1468
I12
aI21
aI34
aI32
aI2
aI35
aI8
aI22
aI26
aI31
aI29
aI30
aI41
aI27
aI39
aI6
aI42
aI37
aI20
aI15
aI17
aI7
aI43
aI4
aI19
aI23
aI40
aI28
aI5
aI25
aI10
aI18
aI38
aI36
aI3
aI33
aI16
aI24
aI13
aI9
aI0
aI14
aI11
aI1
aa(lp1469
I0
aI4
aI3
aI9
aI12
aI15
aI6
aI18
aI2
aI11
aI10
aI5
aI8
aI17
aI14
aI16
aI1
aI13
aI7
aa(lp1470
I1
aI3
aI0
aI7
aI2
aI5
aI4
aI8
aI6
aa(lp1471
I1
aI5
aI3
aI0
aI4
aI2
aa(lp1472
I13
aI5
aI11
aI8
aI10
aI7
aI1
aI4
aI12
aI6
aI3
aI0
aI9
aI2
aa(lp1473
I0
aI1
aI2
aI3
aa(lp1474
I15
aI8
aI6
aI18
aI2
aI14
aI4
aI26
aI24
aI5
aI7
aI22
aI23
aI27
aI17
aI0
aI20
aI16
aI1
aI9
aI3
aI25
aI13
aI10
aI21
aI11
aI19
aI12
aa(lp1475
I5
aI2
aI16
aI15
aI10
aI13
aI9
aI6
aI12
aI8
aI3
aI17
aI14
aI4
aI11
aI7
aI0
aI1
aa(lp1476
I0
aI3
aI2
aI1
aI7
aI6
aI5
aI4
aa(lp1477
I5
aI0
aI3
aI1
aI4
aI8
aI7
aI6
aI2
aa(lp1478
I1
aI2
aI6
aI25
aI21
aI0
aI9
aI5
aI24
aI12
aI8
aI15
aI20
aI11
aI22
aI3
aI23
aI16
aI18
aI14
aI17
aI13
aI26
aI10
aI19
aI7
aI4
aa(lp1479
I8
aI5
aI0
aI9
aI15
aI2
aI7
aI14
aI10
aI13
aI11
aI1
aI3
aI4
aI12
aI6
aI16
aa(lp1480
I6
aI4
aI1
aI14
aI10
aI11
aI15
aI0
aI2
aI12
aI13
aI8
aI5
aI3
aI9
aI7
aa(lp1481
I6
aI2
aI4
aI1
aI5
aI0
aI3
aa(lp1482
I3
aI0
aI4
aI2
aI1
aa(lp1483
I0
aI7
aI21
aI11
aI5
aI8
aI22
aI2
aI14
aI13
aI3
aI19
aI16
aI15
aI23
aI18
aI24
aI17
aI20
aI12
aI9
aI6
aI1
aI4
aI10
aa(lp1484
I0
aI11
aI17
aI18
aI29
aI15
aI30
aI20
aI27
aI24
aI2
aI16
aI25
aI13
aI1
aI33
aI4
aI10
aI32
aI12
aI26
aI19
aI7
aI21
aI6
aI5
aI31
aI23
aI3
aI22
aI9
aI28
aI14
aI8
aa(lp1485
I13
aI24
aI4
aI10
aI1
aI9
aI21
aI25
aI26
aI15
aI14
aI2
aI6
aI23
aI5
aI19
aI0
aI18
aI7
aI20
aI16
aI8
aI3
aI22
aI17
aI12
aI11
aa(lp1486
I1
aI2
aI0
aa(lp1487
I6
aI5
aI4
aI3
aI2
aI1
aI0
aa(lp1488
I8
aI13
aI12
aI2
aI10
aI14
aI4
aI7
aI3
aI6
aI9
aI5
aI0
aI11
aI1
aa(lp1489
I3
aI0
aI1
aI4
aI2
aa(lp1490
I1
aI2
aI0
aa(lp1491
I4
aI6
aI3
aI1
aI9
aI8
aI7
aI2
aI0
aI5
aa(lp1492
I1
aI2
aI4
aI3
aI0
aa(lp1493
I4
aI7
aI1
aI8
aI6
aI9
aI14
aI0
aI15
aI3
aI11
aI12
aI5
aI2
aI16
aI13
aI10
aa(lp1494
I7
aI10
aI13
aI52
aI3
aI15
aI20
aI50
aI47
aI41
aI21
aI25
aI6
aI46
aI42
aI19
aI40
aI44
aI5
aI35
aI18
aI0
aI14
aI12
aI23
aI39
aI24
aI28
aI2
aI29
aI27
aI8
aI26
aI16
aI4
aI31
aI49
aI38
aI1
aI30
aI33
aI22
aI51
aI48
aI45
aI43
aI9
aI11
aI32
aI36
aI34
aI17
aI37
aa(lp1495
I1
aI9
aI8
aI12
aI27
aI16
aI11
aI7
aI15
aI17
aI23
aI20
aI18
aI6
aI25
aI13
aI3
aI0
aI24
aI26
aI19
aI4
aI10
aI22
aI14
aI2
aI28
aI21
aI5
aa(lp1496
I11
aI6
aI1
aI4
aI10
aI8
aI7
aI5
aI3
aI2
aI9
aI0
aa(lp1497
I2
aI5
aI3
aI1
aI7
aI4
aI6
aI0
aa(lp1498
I6
aI0
aI1
aI5
aI7
aI4
aI3
aI2
aa(lp1499
I0
aI1
aa(lp1500
I14
aI7
aI9
aI0
aI16
aI12
aI3
aI4
aI15
aI8
aI13
aI11
aI1
aI5
aI18
aI6
aI10
aI2
aI17
aa(lp1501
I1
aI4
aI0
aI8
aI2
aI7
aI9
aI11
aI3
aI6
aI10
aI5
aa(lp1502
I7
aI4
aI1
aI6
aI5
aI0
aI3
aI2
aa(lp1503
I2
aI9
aI6
aI3
aI0
aI4
aI8
aI7
aI5
aI1
aa(lp1504
I1
aI3
aI4
aI8
aI7
aI0
aI6
aI5
aI2
aa(lp1505
I6
aI3
aI1
aI4
aI5
aI8
aI7
aI0
aI2
aa(lp1506
I7
aI2
aI5
aI1
aI4
aI0
aI6
aI3
aa(lp1507
I17
aI13
aI18
aI1
aI12
aI8
aI14
aI6
aI15
aI3
aI5
aI4
aI9
aI0
aI11
aI10
aI16
aI2
aI7
aa(lp1508
I3
aI2
aI1
aI0
aa(lp1509
I1
aI0
aI2
aI8
aI14
aI11
aI3
aI7
aI23
aI9
aI21
aI20
aI18
aI15
aI16
aI22
aI17
aI6
aI12
aI19
aI4
aI10
aI5
aI13
aa(lp1510
I4
aI11
aI9
aI5
aI7
aI8
aI12
aI10
aI1
aI6
aI3
aI0
aI2
aa(lp1511
I1
aI0
aa(lp1512
I2
aI0
aI1
aa(lp1513
I1
aI2
aI4
aI3
aI0
aa(lp1514
I11
aI12
aI7
aI6
aI16
aI4
aI3
aI1
aI9
aI13
aI14
aI15
aI5
aI2
aI10
aI0
aI8
aa(lp1515
I1
aI0
aI2
aa(lp1516
I11
aI1
aI7
aI9
aI8
aI10
aI2
aI5
aI3
aI0
aI4
aI6
aa(lp1517
I0
aI3
aI2
aI1
aa(lp1518
I0
aI8
aI6
aI9
aI7
aI11
aI4
aI3
aI10
aI5
aI1
aI12
aI2
aa(lp1519
I2
aI4
aI1
aI5
aI7
aI0
aI9
aI10
aI3
aI6
aI8
aa(lp1520
I4
aI11
aI0
aI5
aI8
aI9
aI7
aI6
aI3
aI15
aI14
aI1
aI13
aI2
aI12
aI10
aa(lp1521
I22
aI15
aI16
aI26
aI6
aI7
aI17
aI12
aI30
aI31
aI4
aI3
aI13
aI27
aI25
aI9
aI1
aI0
aI14
aI19
aI10
aI20
aI24
aI8
aI23
aI28
aI18
aI21
aI2
aI5
aI29
aI11
aa(lp1522
I3
aI1
aI2
aI6
aI5
aI0
aI4
aI8
aI7
aa(lp1523
I2
aI5
aI1
aI0
aI4
aI3
aI7
aI6
aa(lp1524
I4
aI5
aI2
aI0
aI6
aI3
aI1
aa(lp1525
I1
aI0
aI3
aI2
aI4
aa(lp1526
I1
aI3
aI4
aI6
aI9
aI7
aI5
aI2
aI0
aI8
aa(lp1527
I18
aI15
aI12
aI9
aI4
aI2
aI0
aI28
aI29
aI13
aI6
aI26
aI19
aI5
aI31
aI3
aI27
aI25
aI1
aI22
aI10
aI7
aI20
aI14
aI16
aI17
aI30
aI24
aI23
aI21
aI11
aI8
aa(lp1528
I15
aI0
aI17
aI12
aI21
aI2
aI9
aI8
aI16
aI1
aI4
aI18
aI7
aI11
aI6
aI5
aI3
aI22
aI20
aI19
aI14
aI13
aI10
aa(lp1529
I1
aI3
aI7
aI6
aI4
aI8
aI5
aI0
aI2
aa(lp1530
I6
aI1
aI0
aI4
aI16
aI11
aI10
aI13
aI8
aI9
aI7
aI3
aI15
aI5
aI17
aI12
aI2
aI14
aa(lp1531
I0
aI3
aI2
aI4
aI1
aa(lp1532
I4
aI2
aI6
aI34
aI18
aI17
aI36
aI31
aI0
aI24
aI5
aI12
aI23
aI28
aI13
aI10
aI15
aI35
aI26
aI20
aI9
aI21
aI1
aI38
aI7
aI3
aI37
aI25
aI30
aI8
aI27
aI11
aI14
aI16
aI32
aI22
aI29
aI33
aI19
aa(lp1533
I15
aI7
aI18
aI13
aI8
aI14
aI11
aI6
aI17
aI4
aI12
aI1
aI0
aI16
aI9
aI5
aI2
aI3
aI10
aa(lp1534
I0
aI3
aI1
aI2
aa(lp1535
I1
aI0
aI2
aa(lp1536
I3
aI9
aI6
aI8
aI7
aI5
aI4
aI2
aI1
aI0
aa(lp1537
I25
aI26
aI27
aI15
aI9
aI20
aI14
aI1
aI17
aI5
aI4
aI29
aI22
aI12
aI6
aI13
aI2
aI16
aI8
aI30
aI11
aI3
aI0
aI10
aI28
aI19
aI7
aI18
aI23
aI21
aI24
aa(lp1538
I6
aI4
aI2
aI9
aI1
aI8
aI7
aI0
aI3
aI5
aa(lp1539
I1
aI6
aI3
aI5
aI7
aI2
aI8
aI0
aI9
aI4
aa(lp1540
I36
aI63
aI35
aI60
aI40
aI67
aI81
aI48
aI49
aI105
aI45
aI14
aI88
aI43
aI59
aI87
aI55
aI103
aI10
aI17
aI78
aI110
aI34
aI8
aI16
aI9
aI69
aI44
aI82
aI61
aI39
aI97
aI104
aI92
aI13
aI80
aI37
aI21
aI33
aI100
aI102
aI50
aI46
aI2
aI66
aI108
aI28
aI72
aI58
aI42
aI68
aI18
aI22
aI30
aI19
aI11
aI95
aI106
aI25
aI27
aI57
aI62
aI23
aI41
aI98
aI26
aI96
aI12
aI70
aI5
aI113
aI83
aI3
aI109
aI29
aI85
aI71
aI64
aI79
aI24
aI86
aI56
aI51
aI93
aI1
aI75
aI6
aI15
aI73
aI65
aI31
aI52
aI99
aI94
aI91
aI32
aI76
aI20
aI101
aI74
aI111
aI107
aI4
aI7
aI112
aI47
aI54
aI77
aI0
aI89
aI90
aI38
aI53
aI84
aa(lp1541
I9
aI11
aI4
aI0
aI6
aI5
aI8
aI7
aI3
aI2
aI1
aI10
aa(lp1542
I0
aI3
aI2
aI1
aa(lp1543
I5
aI4
aI2
aI3
aI1
aI0
aa(lp1544
I3
aI37
aI33
aI24
aI5
aI35
aI21
aI34
aI29
aI13
aI16
aI1
aI8
aI22
aI30
aI25
aI31
aI28
aI12
aI0
aI2
aI36
aI7
aI23
aI18
aI38
aI32
aI19
aI4
aI42
aI20
aI6
aI39
aI26
aI15
aI41
aI40
aI10
aI17
aI9
aI14
aI27
aI11
aa(lp1545
I2
aI5
aI0
aI21
aI18
aI12
aI9
aI13
aI23
aI17
aI8
aI16
aI7
aI4
aI3
aI6
aI11
aI10
aI1
aI19
aI25
aI20
aI26
aI15
aI14
aI24
aI22
aa(lp1546
I9
aI11
aI0
aI8
aI10
aI12
aI1
aI7
aI2
aI6
aI5
aI3
aI4
aa(lp1547
I33
aI12
aI11
aI9
aI2
aI0
aI5
aI13
aI26
aI31
aI20
aI14
aI18
aI37
aI25
aI10
aI3
aI8
aI21
aI32
aI29
aI1
aI28
aI19
aI7
aI15
aI35
aI34
aI36
aI22
aI6
aI4
aI17
aI23
aI24
aI16
aI27
aI30
aa(lp1548
I0
aI2
aI5
aI13
aI1
aI6
aI10
aI9
aI8
aI4
aI7
aI11
aI3
aI12
aa(lp1549
I8
aI2
aI9
aI0
aI4
aI3
aI7
aI1
aI5
aI6
aa(lp1550
I4
aI2
aI3
aI1
aI5
aI0
aa(lp1551
I3
aI9
aI2
aI1
aI8
aI7
aI6
aI0
aI10
aI4
aI5
aa(lp1552
I3
aI0
aI2
aI1
aa(lp1553
I10
aI6
aI8
aI4
aI9
aI2
aI3
aI1
aI0
aI5
aI12
aI11
aI7
aa(lp1554
I8
aI9
aI6
aI10
aI2
aI12
aI3
aI5
aI11
aI1
aI4
aI7
aI0
aa(lp1555
I1
aI2
aI4
aI3
aI0
aa(lp1556
I8
aI4
aI14
aI13
aI5
aI15
aI11
aI1
aI7
aI0
aI3
aI2
aI10
aI6
aI12
aI9
aa(lp1557
I4
aI5
aI3
aI6
aI2
aI1
aI0
aa(lp1558
I4
aI9
aI7
aI10
aI8
aI6
aI5
aI2
aI3
aI1
aI0
aa(lp1559
I4
aI6
aI1
aI3
aI0
aI5
aI2
aa(lp1560
I0
aI2
aI1
aa(lp1561
I8
aI19
aI1
aI2
aI9
aI29
aI0
aI17
aI21
aI4
aI3
aI30
aI11
aI16
aI7
aI5
aI6
aI23
aI18
aI25
aI27
aI15
aI32
aI14
aI13
aI22
aI31
aI10
aI28
aI12
aI26
aI24
aI20
aa(lp1562
I2
aI12
aI4
aI7
aI3
aI5
aI11
aI0
aI1
aI8
aI13
aI10
aI6
aI9
aa(lp1563
I5
aI4
aI9
aI6
aI8
aI0
aI2
aI1
aI7
aI3
aI10
aa(lp1564
I7
aI4
aI8
aI3
aI1
aI12
aI11
aI9
aI10
aI6
aI5
aI2
aI0
aa(lp1565
I5
aI4
aI2
aI1
aI8
aI6
aI9
aI3
aI7
aI0
aa(lp1566
I3
aI2
aI7
aI5
aI6
aI4
aI1
aI0
aI8
aa(lp1567
I3
aI1
aI0
aI2
aa(lp1568
I0
aI2
aI1
aa(lp1569
I3
aI2
aI14
aI5
aI17
aI7
aI16
aI12
aI0
aI10
aI6
aI13
aI4
aI11
aI9
aI18
aI19
aI8
aI1
aI15
aa(lp1570
I1
aI0
aI2
aI3
aa(lp1571
I10
aI0
aI2
aI11
aI7
aI12
aI4
aI13
aI6
aI3
aI1
aI9
aI5
aI8
aa(lp1572
I5
aI6
aI3
aI2
aI4
aI15
aI17
aI8
aI13
aI18
aI11
aI16
aI1
aI10
aI0
aI19
aI7
aI14
aI12
aI9
aa(lp1573
I12
aI0
aI5
aI11
aI14
aI20
aI6
aI4
aI9
aI7
aI19
aI17
aI15
aI13
aI18
aI16
aI8
aI1
aI10
aI2
aI3
aa(lp1574
I0
aI8
aI1
aI9
aI5
aI4
aI16
aI11
aI7
aI15
aI3
aI13
aI21
aI6
aI23
aI22
aI12
aI25
aI2
aI18
aI14
aI10
aI24
aI19
aI20
aI26
aI17
aa(lp1575
I4
aI3
aI5
aI2
aI1
aI0
aI6
aa(lp1576
I9
aI17
aI15
aI5
aI16
aI12
aI20
aI7
aI6
aI24
aI14
aI11
aI26
aI25
aI13
aI18
aI23
aI10
aI19
aI21
aI8
aI22
aI3
aI2
aI1
aI0
aI4
aa(lp1577
I9
aI8
aI15
aI17
aI7
aI30
aI2
aI0
aI11
aI23
aI38
aI3
aI5
aI13
aI25
aI36
aI1
aI37
aI31
aI21
aI19
aI27
aI24
aI42
aI18
aI6
aI20
aI16
aI12
aI22
aI33
aI35
aI28
aI10
aI29
aI4
aI41
aI14
aI39
aI34
aI40
aI26
aI32
aa(lp1578
I9
aI3
aI7
aI2
aI6
aI5
aI4
aI1
aI8
aI0
aa(lp1579
I3
aI2
aI0
aI1
aa(lp1580
I7
aI3
aI0
aI4
aI8
aI9
aI2
aI5
aI6
aI1
aa(lp1581
I9
aI18
aI3
aI15
aI5
aI17
aI8
aI16
aI10
aI4
aI11
aI7
aI2
aI14
aI12
aI6
aI1
aI13
aI0
aa(lp1582
I0
aI3
aI4
aI2
aI1
aa(lp1583
I7
aI6
aI4
aI1
aI0
aI3
aI2
aI5
aa(lp1584
I0
aI1
aa(lp1585
I5
aI6
aI8
aI4
aI1
aI3
aI9
aI0
aI7
aI2
aa(lp1586
I6
aI4
aI2
aI0
aI10
aI7
aI5
aI9
aI11
aI3
aI1
aI8
aa(lp1587
I5
aI2
aI7
aI6
aI3
aI1
aI0
aI8
aI4
aa(lp1588
I4
aI17
aI16
aI15
aI7
aI3
aI18
aI5
aI0
aI9
aI1
aI11
aI12
aI10
aI2
aI8
aI6
aI14
aI13
aa(lp1589
I4
aI3
aI0
aI1
aI2
aa(lp1590
I0
aI4
aI3
aI1
aI5
aI2
aa(lp1591
I1
aI9
aI4
aI0
aI13
aI10
aI17
aI3
aI14
aI12
aI5
aI8
aI16
aI11
aI15
aI2
aI7
aI6
aa(lp1592
I8
aI0
aI19
aI15
aI18
aI12
aI21
aI20
aI3
aI11
aI10
aI7
aI2
aI14
aI1
aI22
aI4
aI9
aI13
aI5
aI17
aI16
aI6
aa(lp1593
I0
aI1
aI4
aI7
aI2
aI9
aI17
aI20
aI18
aI10
aI11
aI14
aI6
aI8
aI19
aI13
aI5
aI21
aI3
aI16
aI15
aI12
aa(lp1594
I4
aI9
aI7
aI11
aI2
aI3
aI6
aI0
aI1
aI10
aI8
aI13
aI5
aI12
aa(lp1595
I34
aI21
aI33
aI29
aI28
aI4
aI15
aI16
aI5
aI32
aI36
aI26
aI27
aI14
aI31
aI20
aI19
aI6
aI25
aI23
aI22
aI18
aI17
aI13
aI12
aI11
aI10
aI9
aI8
aI3
aI2
aI0
aI30
aI24
aI7
aI1
aI35
aa(lp1596
I41
aI49
aI2
aI39
aI31
aI21
aI8
aI38
aI42
aI45
aI20
aI11
aI3
aI5
aI37
aI40
aI29
aI19
aI9
aI36
aI46
aI28
aI18
aI12
aI44
aI27
aI0
aI16
aI4
aI50
aI30
aI24
aI33
aI10
aI48
aI47
aI35
aI23
aI22
aI14
aI13
aI43
aI17
aI7
aI6
aI34
aI26
aI32
aI25
aI15
aI1
aa(lp1597
I0
aa(lp1598
I4
aI1
aI2
aI0
aI3
aI5
aa(lp1599
I14
aI0
aI3
aI11
aI7
aI1
aI16
aI15
aI12
aI5
aI4
aI9
aI6
aI13
aI2
aI8
aI17
aI10
aa(lp1600
I5
aI0
aI14
aI12
aI11
aI8
aI10
aI13
aI1
aI3
aI2
aI9
aI7
aI6
aI4
aa(lp1601
I0
aI1
aI2
aI3
aI4
aa(lp1602
I0
aI1
aa(lp1603
I1
aI10
aI11
aI5
aI2
aI7
aI6
aI3
aI8
aI9
aI0
aI4
aa(lp1604
I0
aI5
aI11
aI1
aI9
aI19
aI12
aI16
aI10
aI7
aI3
aI14
aI15
aI17
aI2
aI6
aI8
aI4
aI20
aI13
aI18
aa(lp1605
I0
aa(lp1606
I4
aI6
aI7
aI11
aI8
aI3
aI13
aI5
aI2
aI9
aI1
aI10
aI0
aI12
aa(lp1607
I7
aI17
aI26
aI33
aI24
aI34
aI31
aI16
aI6
aI27
aI19
aI32
aI18
aI29
aI14
aI21
aI11
aI28
aI25
aI3
aI4
aI0
aI5
aI9
aI15
aI2
aI12
aI8
aI10
aI1
aI23
aI13
aI20
aI30
aI22
aa(lp1608
I1
aI0
aI2
aI3
aI5
aI4
aI6
aa(lp1609
I18
aI17
aI6
aI16
aI14
aI15
aI5
aI32
aI30
aI27
aI8
aI19
aI12
aI23
aI1
aI22
aI0
aI28
aI29
aI9
aI33
aI13
aI26
aI4
aI34
aI31
aI25
aI20
aI11
aI10
aI24
aI3
aI21
aI7
aI2
aa(lp1610
I5
aI3
aI19
aI6
aI4
aI14
aI15
aI0
aI16
aI9
aI1
aI17
aI20
aI18
aI12
aI8
aI11
aI10
aI7
aI21
aI2
aI13
aa(lp1611
I7
aI3
aI4
aI8
aI16
aI12
aI13
aI15
aI2
aI1
aI9
aI0
aI6
aI11
aI14
aI10
aI5
aa(lp1612
I0
aI6
aI9
aI11
aI4
aI10
aI13
aI16
aI1
aI5
aI12
aI15
aI14
aI3
aI2
aI7
aI8
aa(lp1613
I10
aI7
aI0
aI12
aI6
aI1
aI11
aI2
aI13
aI9
aI14
aI8
aI4
aI3
aI5
aa(lp1614
I11
aI10
aI9
aI8
aI7
aI6
aI5
aI4
aI3
aI2
aI1
aI0
aa(lp1615
I1
aI3
aI8
aI10
aI11
aI7
aI5
aI0
aI2
aI13
aI4
aI12
aI9
aI6
aa(lp1616
I2
aI3
aI9
aI12
aI8
aI6
aI0
aI11
aI10
aI5
aI7
aI1
aI4
aa(lp1617
I0
aI10
aI14
aI1
aI2
aI11
aI18
aI19
aI6
aI15
aI13
aI17
aI4
aI3
aI12
aI16
aI8
aI7
aI9
aI20
aI5
aa(lp1618
I0
aa(lp1619
I0
aI3
aI13
aI10
aI21
aI15
aI11
aI14
aI7
aI20
aI6
aI8
aI16
aI19
aI4
aI2
aI22
aI12
aI18
aI9
aI17
aI5
aI1
aa(lp1620
I2
aI11
aI0
aI3
aI6
aI4
aI10
aI8
aI7
aI9
aI5
aI1
aa(lp1621
I13
aI12
aI11
aI10
aI9
aI8
aI7
aI6
aI5
aI4
aI3
aI2
aI1
aI0
aa(lp1622
I5
aI2
aI1
aI0
aI4
aI3
aa(lp1623
I0
aI7
aI2
aI1
aI9
aI3
aI4
aI8
aI13
aI12
aI11
aI6
aI10
aI5
aa(lp1624
I4
aI2
aI0
aI3
aI1
aa(lp1625
I13
aI14
aI6
aI0
aI2
aI4
aI3
aI7
aI19
aI1
aI10
aI5
aI17
aI9
aI18
aI15
aI16
aI11
aI12
aI8
aa(lp1626
I6
aI2
aI9
aI3
aI1
aI8
aI14
aI10
aI5
aI4
aI16
aI12
aI13
aI0
aI11
aI15
aI7
aa(lp1627
I12
aI2
aI5
aI10
aI3
aI6
aI9
aI1
aI8
aI11
aI7
aI4
aI0
aa(lp1628
I1
aI2
aI0
aI3
aa(lp1629
I7
aI5
aI13
aI2
aI4
aI0
aI1
aI6
aI14
aI9
aI12
aI3
aI15
aI11
aI10
aI8
aa(lp1630
I43
aI0
aI10
aI7
aI12
aI9
aI14
aI36
aI32
aI45
aI44
aI28
aI18
aI6
aI33
aI19
aI38
aI15
aI2
aI47
aI34
aI20
aI13
aI5
aI39
aI35
aI29
aI27
aI23
aI16
aI11
aI48
aI42
aI8
aI4
aI40
aI26
aI3
aI49
aI41
aI37
aI30
aI25
aI21
aI17
aI46
aI31
aI24
aI22
aI1
aa(lp1631
I3
aI15
aI13
aI8
aI17
aI16
aI11
aI10
aI2
aI1
aI7
aI12
aI5
aI6
aI0
aI4
aI9
aI19
aI14
aI18
aa(lp1632
I1
aI4
aI3
aI2
aI5
aI0
aa(lp1633
I3
aI4
aI0
aI8
aI2
aI5
aI1
aI6
aI9
aI7
aa(lp1634
I10
aI2
aI7
aI1
aI12
aI4
aI8
aI0
aI6
aI3
aI11
aI5
aI9
aa(lp1635
I1
aI0
aI4
aI3
aI2
aa(lp1636
I1
aI5
aI6
aI3
aI2
aI7
aI4
aI0
aa(lp1637
I7
aI8
aI10
aI1
aI2
aI6
aI4
aI5
aI0
aI3
aI9
aa(lp1638
I0
aI7
aI13
aI16
aI15
aI11
aI2
aI9
aI8
aI6
aI5
aI12
aI1
aI18
aI19
aI17
aI14
aI4
aI10
aI3
aa(lp1639
I4
aI3
aI1
aI9
aI6
aI2
aI5
aI8
aI10
aI7
aI0
aa(lp1640
I2
aI1
aI0
aa(lp1641
I0
aI1
aa(lp1642
I0
aI2
aI30
aI4
aI20
aI22
aI14
aI1
aI36
aI35
aI18
aI16
aI37
aI6
aI3
aI34
aI27
aI8
aI28
aI7
aI19
aI12
aI29
aI15
aI26
aI11
aI25
aI13
aI24
aI31
aI5
aI33
aI17
aI10
aI32
aI9
aI23
aI21
aa(lp1643
I7
aI6
aI11
aI8
aI14
aI10
aI12
aI3
aI5
aI0
aI4
aI9
aI13
aI1
aI2
aa(lp1644
I3
aI4
aI11
aI8
aI2
aI10
aI9
aI7
aI1
aI0
aI6
aI12
aI5
aa(lp1645
I0
aa(lp1646
I23
aI36
aI32
aI3
aI11
aI12
aI1
aI25
aI20
aI19
aI37
aI7
aI22
aI21
aI26
aI15
aI2
aI10
aI34
aI5
aI8
aI14
aI0
aI29
aI4
aI28
aI24
aI18
aI9
aI33
aI16
aI6
aI39
aI31
aI30
aI35
aI13
aI17
aI27
aI38
aa(lp1647
I22
aI5
aI30
aI10
aI19
aI6
aI16
aI21
aI23
aI4
aI28
aI3
aI1
aI25
aI11
aI0
aI14
aI33
aI12
aI18
aI20
aI32
aI24
aI9
aI31
aI15
aI13
aI17
aI2
aI29
aI26
aI8
aI27
aI7
aa(lp1648
I26
aI13
aI41
aI17
aI32
aI8
aI45
aI27
aI22
aI16
aI40
aI9
aI42
aI43
aI35
aI12
aI2
aI29
aI38
aI34
aI0
aI15
aI31
aI20
aI14
aI11
aI44
aI4
aI33
aI7
aI46
aI21
aI23
aI25
aI19
aI24
aI18
aI10
aI6
aI1
aI28
aI37
aI36
aI30
aI3
aI5
aI39
aa(lp1649
I6
aI2
aI3
aI1
aI4
aI0
aI5
aa(lp1650
I6
aI9
aI1
aI11
aI21
aI7
aI3
aI16
aI5
aI13
aI2
aI23
aI10
aI8
aI15
aI18
aI4
aI22
aI12
aI0
aI17
aI14
aI20
aI19
aa(lp1651
I1
aI0
aI2
aI3
aI5
aI4
aa(lp1652
I5
aI4
aI3
aI1
aI7
aI6
aI2
aI0
aa(lp1653
I14
aI15
aI16
aI18
aI9
aI13
aI1
aI10
aI8
aI7
aI4
aI3
aI0
aI11
aI6
aI2
aI17
aI12
aI5
aa(lp1654
I0
aI1
aa(lp1655
I0
aI12
aI22
aI23
aI5
aI4
aI7
aI19
aI17
aI21
aI24
aI1
aI16
aI20
aI11
aI13
aI2
aI3
aI6
aI18
aI10
aI14
aI8
aI9
aI15
aa(lp1656
I14
aI10
aI16
aI13
aI15
aI7
aI9
aI1
aI2
aI17
aI12
aI11
aI8
aI3
aI0
aI4
aI6
aI5
aa(lp1657
I2
aI4
aI0
aI8
aI5
aI1
aI7
aI6
aI10
aI3
aI9
aa(lp1658
I2
aI0
aI13
aI1
aI5
aI14
aI9
aI4
aI7
aI11
aI10
aI12
aI6
aI3
aI8
aa(lp1659
I0
aI1
aa(lp1660
I12
aI1
aI19
aI14
aI9
aI5
aI20
aI13
aI0
aI11
aI23
aI16
aI17
aI10
aI7
aI6
aI18
aI4
aI22
aI15
aI3
aI2
aI21
aI8
aa(lp1661
I2
aI5
aI11
aI0
aI10
aI7
aI14
aI12
aI6
aI3
aI1
aI4
aI8
aI13
aI9
aa(lp1662
I10
aI7
aI13
aI0
aI5
aI11
aI1
aI8
aI2
aI12
aI9
aI3
aI4
aI6
aa(lp1663
I0
aI5
aI3
aI11
aI1
aI12
aI7
aI9
aI6
aI4
aI10
aI2
aI8
aa(lp1664
I7
aI3
aI5
aI18
aI13
aI0
aI21
aI8
aI4
aI2
aI20
aI12
aI6
aI16
aI23
aI11
aI1
aI22
aI9
aI15
aI17
aI10
aI19
aI14
aa(lp1665
I3
aI5
aI2
aI7
aI0
aI6
aI4
aI1
aa(lp1666
I12
aI13
aI6
aI11
aI1
aI14
aI4
aI5
aI3
aI0
aI10
aI9
aI15
aI8
aI7
aI2
aa(lp1667
I4
aI0
aI2
aI14
aI8
aI23
aI12
aI7
aI9
aI11
aI3
aI21
aI27
aI25
aI13
aI16
aI24
aI26
aI15
aI20
aI22
aI18
aI10
aI19
aI6
aI1
aI17
aI5
aa(lp1668
I12
aI4
aI13
aI6
aI18
aI24
aI0
aI25
aI14
aI11
aI23
aI26
aI19
aI17
aI3
aI22
aI21
aI10
aI9
aI1
aI7
aI27
aI2
aI20
aI16
aI15
aI8
aI5
aa(lp1669
I8
aI0
aI7
aI1
aI4
aI5
aI2
aI3
aI6
aa(lp1670
I8
aI2
aI3
aI7
aI0
aI4
aI5
aI1
aI6
aa(lp1671
I14
aI0
aI21
aI11
aI12
aI3
aI20
aI16
aI9
aI23
aI1
aI6
aI5
aI18
aI13
aI10
aI24
aI25
aI19
aI15
aI7
aI8
aI2
aI4
aI22
aI17
aa(lp1672
I11
aI12
aI6
aI13
aI7
aI14
aI3
aI8
aI9
aI2
aI1
aI4
aI10
aI5
aI15
aI0
aa(lp1673
I3
aI2
aI1
aI0
aa(lp1674
I7
aI35
aI3
aI39
aI6
aI4
aI41
aI40
aI38
aI37
aI36
aI34
aI33
aI32
aI31
aI30
aI29
aI28
aI27
aI26
aI25
aI24
aI23
aI22
aI21
aI20
aI19
aI18
aI17
aI16
aI15
aI14
aI13
aI12
aI11
aI10
aI9
aI8
aI5
aI2
aI1
aI0
aa(lp1675
I2
aI0
aI4
aI1
aI6
aI5
aI3
aa(lp1676
I5
aI0
aI1
aI3
aI2
aI7
aI6
aI4
aa(lp1677
I32
aI9
aI5
aI4
aI10
aI7
aI25
aI18
aI17
aI16
aI3
aI1
aI0
aI2
aI13
aI35
aI33
aI30
aI26
aI24
aI22
aI21
aI20
aI15
aI14
aI12
aI6
aI11
aI34
aI31
aI29
aI28
aI27
aI23
aI19
aI8
aa(lp1678
I1
aI11
aI5
aI7
aI8
aI9
aI4
aI10
aI2
aI3
aI6
aI0
aa(lp1679
I0
aI16
aI14
aI6
aI3
aI1
aI17
aI13
aI7
aI2
aI5
aI9
aI4
aI19
aI11
aI12
aI15
aI8
aI10
aI18
aa(lp1680
I0
aI6
aI3
aI2
aI10
aI9
aI11
aI1
aI8
aI7
aI4
aI5
aa(lp1681
I0
aI4
aI3
aI7
aI1
aI8
aI5
aI6
aI11
aI2
aI12
aI9
aI10
aa(lp1682
I1
aI2
aI0
aa(lp1683
I0
aI1
aI6
aI3
aI12
aI13
aI11
aI2
aI7
aI5
aI9
aI8
aI10
aI4
aa(lp1684
I1
aI0
aI3
aI4
aI2
aI5
aa(lp1685
I6
aI5
aI3
aI1
aI0
aI4
aI2
aa(lp1686
I7
aI1
aI5
aI4
aI6
aI2
aI3
aI0
aa(lp1687
I10
aI3
aI23
aI2
aI18
aI15
aI6
aI13
aI19
aI17
aI24
aI1
aI9
aI22
aI8
aI20
aI21
aI16
aI4
aI12
aI5
aI11
aI14
aI0
aI7
aa(lp1688
I2
aI3
aI22
aI6
aI12
aI19
aI21
aI10
aI0
aI17
aI16
aI14
aI9
aI4
aI11
aI1
aI20
aI7
aI15
aI13
aI18
aI5
aI8
aa(lp1689
I17
aI15
aI3
aI10
aI1
aI9
aI6
aI2
aI16
aI12
aI8
aI13
aI14
aI7
aI4
aI0
aI5
aI11
aa(lp1690
I5
aI0
aI2
aI8
aI6
aI3
aI9
aI7
aI4
aI1
aa(lp1691
I5
aI1
aI6
aI0
aI2
aI4
aI7
aI3
aa(lp1692
I20
aI13
aI3
aI14
aI16
aI19
aI9
aI6
aI8
aI22
aI2
aI12
aI4
aI0
aI15
aI7
aI1
aI5
aI17
aI11
aI10
aI21
aI18
aa(lp1693
I7
aI2
aI4
aI0
aI1
aI9
aI8
aI5
aI3
aI6
aa(lp1694
I5
aI0
aI4
aI1
aI3
aI2
aa(lp1695
I0
aI2
aI1
aa(lp1696
I0
aI1
aa(lp1697
I7
aI6
aI5
aI4
aI3
aI2
aI1
aI0
aa(lp1698
I7
aI9
aI3
aI16
aI11
aI4
aI20
aI18
aI0
aI14
aI15
aI21
aI19
aI13
aI2
aI10
aI12
aI1
aI17
aI5
aI6
aI8
aa(lp1699
I2
aI1
aI3
aI4
aI0
aa(lp1700
I15
aI27
aI24
aI18
aI6
aI36
aI2
aI4
aI34
aI28
aI11
aI16
aI7
aI29
aI9
aI10
aI39
aI35
aI42
aI47
aI1
aI43
aI44
aI8
aI40
aI0
aI14
aI13
aI30
aI20
aI41
aI37
aI23
aI21
aI38
aI33
aI46
aI31
aI45
aI3
aI12
aI5
aI32
aI26
aI25
aI19
aI22
aI17
aa(lp1701
I4
aI11
aI6
aI2
aI7
aI3
aI1
aI0
aI8
aI10
aI9
aI5
aa(lp1702
I7
aI11
aI10
aI9
aI8
aI6
aI5
aI4
aI3
aI2
aI1
aI0
aa(lp1703
I3
aI1
aI14
aI7
aI5
aI6
aI0
aI2
aI10
aI9
aI8
aI16
aI12
aI4
aI15
aI13
aI11
aa(lp1704
I3
aI10
aI15
aI13
aI14
aI11
aI17
aI12
aI18
aI6
aI2
aI16
aI8
aI5
aI9
aI4
aI1
aI7
aI0
aa(lp1705
I2
aI0
aI1
aI3
aa(lp1706
I21
aI0
aI24
aI23
aI6
aI4
aI5
aI1
aI17
aI11
aI13
aI14
aI3
aI18
aI12
aI9
aI20
aI2
aI15
aI10
aI7
aI22
aI19
aI16
aI8
aa(lp1707
I0
aI1
aI2
aa(lp1708
I3
aI4
aI14
aI15
aI1
aI5
aI8
aI6
aI13
aI2
aI10
aI12
aI16
aI11
aI0
aI9
aI7
aa(lp1709
I1
aI8
aI2
aI0
aI4
aI5
aI6
aI10
aI9
aI3
aI7
aa(lp1710
I0
aI1
aI4
aI2
aI3
aa(lp1711
I0
aI2
aI13
aI6
aI11
aI12
aI3
aI4
aI7
aI9
aI5
aI10
aI8
aI1
aa(lp1712
I1
aI5
aI6
aI8
aI0
aI4
aI2
aI7
aI3
aa(lp1713
I4
aI3
aI1
aI0
aI2
aa(lp1714
I0
aI7
aI8
aI11
aI14
aI20
aI16
aI13
aI18
aI2
aI5
aI9
aI19
aI12
aI6
aI15
aI4
aI17
aI10
aI1
aI3
aa(lp1715
I5
aI1
aI2
aI7
aI0
aI8
aI9
aI3
aI4
aI6
aa(lp1716
I11
aI13
aI16
aI15
aI25
aI12
aI5
aI6
aI2
aI18
aI0
aI22
aI4
aI24
aI17
aI21
aI19
aI10
aI7
aI1
aI20
aI26
aI3
aI14
aI8
aI9
aI23
aa(lp1717
I4
aI11
aI13
aI18
aI8
aI5
aI15
aI2
aI14
aI19
aI10
aI0
aI16
aI7
aI12
aI9
aI1
aI17
aI6
aI3
aa(lp1718
I63
aI67
aI32
aI50
aI35
aI20
aI23
aI43
aI27
aI18
aI6
aI44
aI54
aI56
aI31
aI34
aI10
aI1
aI53
aI2
aI42
aI33
aI37
aI15
aI26
aI45
aI22
aI0
aI49
aI46
aI68
aI60
aI4
aI25
aI3
aI51
aI47
aI62
aI24
aI40
aI72
aI36
aI14
aI17
aI12
aI21
aI5
aI70
aI65
aI66
aI29
aI8
aI64
aI71
aI9
aI16
aI28
aI7
aI69
aI61
aI57
aI41
aI13
aI58
aI59
aI11
aI55
aI52
aI48
aI39
aI38
aI30
aI19
aa(lp1719
I24
aI13
aI0
aI15
aI6
aI4
aI8
aI19
aI18
aI1
aI22
aI9
aI11
aI7
aI17
aI14
aI20
aI5
aI2
aI3
aI21
aI16
aI10
aI23
aI12
aa(lp1720
I3
aI2
aI1
aI4
aI7
aI0
aI10
aI8
aI5
aI6
aI9
aa(lp1721
I4
aI2
aI3
aI6
aI0
aI7
aI5
aI1
aa(lp1722
I1
aI0
aI7
aI18
aI16
aI8
aI6
aI13
aI9
aI11
aI12
aI17
aI15
aI5
aI3
aI10
aI2
aI14
aI4
aa(lp1723
I0
aI1
aI3
aI2
aa(lp1724
I4
aI5
aI2
aI0
aI6
aI3
aI1
aa(lp1725
I1
aI11
aI10
aI8
aI4
aI6
aI5
aI9
aI13
aI7
aI2
aI12
aI3
aI0
aa(lp1726
I1
aI2
aI9
aI6
aI4
aI8
aI3
aI5
aI7
aI0
aa(lp1727
I3
aI1
aI0
aI2
aI4
aa(lp1728
I10
aI12
aI1
aI13
aI0
aI6
aI7
aI5
aI2
aI3
aI11
aI9
aI8
aI4
aa(lp1729
I21
aI6
aI20
aI11
aI31
aI29
aI18
aI14
aI8
aI30
aI28
aI27
aI26
aI25
aI24
aI23
aI22
aI19
aI17
aI16
aI15
aI13
aI12
aI10
aI9
aI7
aI5
aI4
aI3
aI2
aI1
aI0
aI32
aa(lp1730
I12
aI2
aI15
aI8
aI0
aI5
aI6
aI3
aI22
aI23
aI11
aI19
aI17
aI14
aI20
aI9
aI16
aI24
aI18
aI4
aI7
aI10
aI13
aI21
aI1
aa(lp1731
I2
aI3
aI7
aI10
aI14
aI4
aI9
aI11
aI1
aI13
aI5
aI0
aI6
aI15
aI12
aI16
aI8
aa(lp1732
I1
aI5
aI2
aI6
aI3
aI7
aI4
aI0
aa(lp1733
I1
aI0
aI2
aa(lp1734
I3
aI0
aI1
aI6
aI2
aI7
aI4
aI5
aa(lp1735
I2
aI0
aI1
aI3
aa(lp1736
I3
aI1
aI4
aI0
aI2
aa(lp1737
I7
aI22
aI1
aI6
aI2
aI4
aI0
aI20
aI23
aI5
aI15
aI19
aI21
aI16
aI14
aI8
aI17
aI12
aI13
aI18
aI3
aI10
aI11
aI9
aa(lp1738
I6
aI5
aI7
aI3
aI0
aI2
aI4
aI1
aa(lp1739
I13
aI0
aI12
aI9
aI8
aI5
aI11
aI7
aI3
aI6
aI2
aI14
aI1
aI4
aI10
aa(lp1740
I7
aI3
aI5
aI12
aI8
aI2
aI14
aI18
aI16
aI15
aI0
aI4
aI10
aI1
aI17
aI9
aI13
aI6
aI11
aa(lp1741
I8
aI7
aI9
aI1
aI6
aI5
aI2
aI0
aI4
aI3
aa(lp1742
I3
aI1
aI2
aI6
aI5
aI0
aI4
aa(lp1743
I2
aI1
aI0
aa(lp1744
I1
aI0
aa(lp1745
I1
aI4
aI3
aI0
aI5
aI2
aa(lp1746
I1
aI24
aI23
aI0
aI20
aI18
aI5
aI4
aI30
aI17
aI25
aI7
aI16
aI3
aI9
aI22
aI13
aI15
aI11
aI6
aI8
aI21
aI29
aI10
aI2
aI19
aI28
aI27
aI12
aI14
aI26
aa(lp1747
I1
aI5
aI2
aI0
aI4
aI3
aa(lp1748
I1
aI2
aI0
aa(lp1749
I42
aI4
aI15
aI34
aI35
aI40
aI30
aI24
aI13
aI28
aI9
aI21
aI5
aI41
aI11
aI32
aI14
aI19
aI20
aI7
aI26
aI22
aI17
aI33
aI18
aI10
aI6
aI29
aI12
aI38
aI31
aI23
aI16
aI36
aI8
aI3
aI25
aI37
aI43
aI1
aI0
aI2
aI39
aI44
aI27
aI46
aI45
aa(lp1750
I0
aI12
aI2
aI7
aI6
aI11
aI3
aI1
aI14
aI8
aI5
aI4
aI16
aI10
aI15
aI13
aI9
aa(lp1751
I6
aI8
aI10
aI15
aI20
aI13
aI18
aI12
aI5
aI0
aI17
aI16
aI3
aI14
aI4
aI1
aI19
aI11
aI9
aI2
aI7
aa(lp1752
I0
aI1
aI4
aI2
aI5
aI3
aa(lp1753
I12
aI8
aI13
aI10
aI14
aI7
aI9
aI4
aI1
aI11
aI6
aI3
aI0
aI2
aI5
aa(lp1754
I13
aI0
aI4
aI6
aI8
aI2
aI16
aI12
aI5
aI3
aI14
aI11
aI1
aI7
aI15
aI10
aI9
aa(lp1755
I0
aI3
aI1
aI2
aa(lp1756
I17
aI7
aI40
aI25
aI19
aI5
aI28
aI38
aI39
aI30
aI42
aI34
aI49
aI29
aI27
aI41
aI24
aI20
aI26
aI16
aI33
aI31
aI11
aI32
aI46
aI14
aI21
aI6
aI52
aI9
aI50
aI22
aI36
aI18
aI55
aI51
aI56
aI53
aI37
aI0
aI12
aI8
aI4
aI3
aI44
aI23
aI15
aI1
aI47
aI43
aI2
aI54
aI35
aI13
aI48
aI10
aI45
aa(lp1757
I0
aI3
aI1
aI2
aI5
aI6
aI4
aa(lp1758
I1
aI2
aI3
aI7
aI5
aI4
aI0
aI8
aI6
aa(lp1759
I0
aI2
aI1
aa(lp1760
I16
aI7
aI0
aI6
aI29
aI28
aI21
aI25
aI24
aI31
aI23
aI39
aI11
aI35
aI17
aI22
aI26
aI33
aI20
aI2
aI15
aI13
aI30
aI5
aI36
aI34
aI18
aI10
aI3
aI12
aI19
aI14
aI37
aI9
aI32
aI27
aI38
aI8
aI4
aI1
aa(lp1761
I1
aI8
aI0
aI7
aI6
aI5
aI9
aI4
aI14
aI2
aI11
aI3
aI10
aI13
aI12
aa(lp1762
I1
aI7
aI8
aI4
aI6
aI3
aI2
aI5
aI0
aI9
aa(lp1763
I0
aI7
aI3
aI5
aI25
aI11
aI16
aI17
aI2
aI15
aI14
aI22
aI18
aI29
aI26
aI8
aI6
aI4
aI1
aI12
aI28
aI30
aI23
aI19
aI9
aI20
aI10
aI27
aI21
aI24
aI13
aa(lp1764
I0
aa(lp1765
I0
aa(lp1766
I6
aI24
aI33
aI34
aI17
aI29
aI36
aI1
aI42
aI23
aI15
aI25
aI2
aI3
aI26
aI43
aI21
aI41
aI22
aI40
aI4
aI38
aI16
aI35
aI32
aI31
aI28
aI9
aI8
aI12
aI0
aI13
aI7
aI39
aI19
aI20
aI5
aI37
aI30
aI27
aI18
aI11
aI10
aI44
aI14
aa(lp1767
I0
aI1
aI2
aI5
aI7
aI6
aI4
aI8
aI3
aa(lp1768
I12
aI18
aI2
aI0
aI14
aI8
aI16
aI15
aI3
aI13
aI10
aI1
aI17
aI11
aI9
aI7
aI5
aI4
aI6
aa(lp1769
I1
aI4
aI2
aI0
aI3
aa(lp1770
I5
aI2
aI4
aI8
aI10
aI9
aI11
aI7
aI3
aI6
aI1
aI0
aa(lp1771
I14
aI10
aI12
aI9
aI11
aI8
aI15
aI18
aI5
aI13
aI17
aI1
aI2
aI3
aI6
aI16
aI7
aI0
aI4
aa(lp1772
I1
aI19
aI16
aI20
aI21
aI5
aI10
aI8
aI9
aI4
aI18
aI17
aI0
aI12
aI7
aI6
aI2
aI11
aI22
aI15
aI3
aI14
aI13
aa(lp1773
I0
aI4
aI9
aI7
aI12
aI6
aI10
aI11
aI8
aI3
aI5
aI1
aI2
aa(lp1774
I2
aI1
aI0
aa(lp1775
I4
aI10
aI8
aI7
aI1
aI6
aI5
aI9
aI11
aI2
aI0
aI3
aa(lp1776
I0
aI5
aI4
aI3
aI1
aI2
aa(lp1777
I4
aI3
aI1
aI5
aI2
aI0
aa(lp1778
I4
aI26
aI30
aI15
aI8
aI38
aI21
aI25
aI24
aI18
aI1
aI32
aI12
aI23
aI22
aI7
aI11
aI20
aI34
aI40
aI28
aI37
aI3
aI0
aI27
aI29
aI14
aI5
aI41
aI19
aI6
aI35
aI36
aI10
aI39
aI33
aI2
aI16
aI9
aI31
aI17
aI13
aa(lp1779
I1
aI0
aa(lp1780
I9
aI0
aI7
aI6
aI5
aI1
aI10
aI2
aI3
aI11
aI4
aI8
aa(lp1781
I8
aI0
aI5
aI1
aI7
aI6
aI14
aI13
aI2
aI16
aI10
aI9
aI3
aI15
aI4
aI12
aI11
aa(lp1782
I1
aI3
aI0
aI4
aI5
aI2
aI6
aa(lp1783
I2
aI5
aI7
aI4
aI6
aI9
aI11
aI1
aI0
aI14
aI8
aI3
aI15
aI13
aI12
aI10
aa(lp1784
I0
aI2
aI1
aa(lp1785
I8
aI7
aI12
aI1
aI4
aI0
aI2
aI11
aI9
aI10
aI3
aI6
aI5
aa(lp1786
I1
aI6
aI22
aI28
aI23
aI14
aI21
aI2
aI29
aI3
aI9
aI31
aI11
aI0
aI20
aI13
aI24
aI12
aI8
aI27
aI10
aI19
aI7
aI30
aI4
aI15
aI17
aI25
aI26
aI5
aI18
aI16
aa(lp1787
I5
aI1
aI0
aI3
aI4
aI2
aa(lp1788
I1
aI3
aI8
aI6
aI7
aI4
aI5
aI9
aI0
aI2
aa(lp1789
I0
aI17
aI11
aI6
aI21
aI23
aI10
aI9
aI20
aI1
aI18
aI24
aI22
aI14
aI3
aI4
aI25
aI16
aI13
aI19
aI2
aI7
aI5
aI12
aI15
aI8
aa(lp1790
I2
aI3
aI0
aI1
aI4
aa(lp1791
I1
aI5
aI16
aI10
aI11
aI12
aI9
aI17
aI2
aI4
aI8
aI6
aI3
aI13
aI0
aI15
aI14
aI7
aa(lp1792
I2
aI0
aI11
aI1
aI5
aI4
aI3
aI9
aI8
aI7
aI6
aI10
aa(lp1793
I6
aI13
aI4
aI0
aI1
aI10
aI3
aI7
aI11
aI16
aI8
aI15
aI12
aI9
aI5
aI2
aI14
aa(lp1794
I1
aI6
aI8
aI7
aI9
aI5
aI4
aI2
aI10
aI3
aI0
aa(lp1795
I1
aI0
aa(lp1796
I0
aI1
aI2
aa(lp1797
I1
aI4
aI3
aI5
aI2
aI0
aa(lp1798
I6
aI12
aI13
aI1
aI8
aI14
aI16
aI10
aI0
aI11
aI20
aI7
aI23
aI21
aI4
aI19
aI9
aI3
aI22
aI17
aI5
aI2
aI18
aI15
aI24
aa(lp1799
I10
aI3
aI0
aI14
aI2
aI21
aI12
aI8
aI11
aI22
aI16
aI20
aI15
aI25
aI9
aI19
aI23
aI24
aI5
aI4
aI17
aI18
aI7
aI13
aI1
aI6
aa(lp1800
I2
aI7
aI1
aI4
aI18
aI34
aI33
aI30
aI40
aI10
aI31
aI32
aI17
aI6
aI20
aI42
aI41
aI39
aI12
aI11
aI38
aI28
aI5
aI15
aI25
aI16
aI23
aI22
aI37
aI29
aI27
aI14
aI13
aI19
aI24
aI9
aI43
aI21
aI8
aI26
aI0
aI3
aI36
aI35
aa(lp1801
I0
aI1
aI3
aI2
aI5
aI4
aa(lp1802
I2
aI3
aI1
aI0
aa(lp1803
I1
aI3
aI2
aI0
aa(lp1804
I2
aI1
aI6
aI5
aI4
aI11
aI3
aI9
aI0
aI10
aI7
aI12
aI8
aa(lp1805
I3
aI4
aI0
aI2
aI1
aa(lp1806
I0
aI3
aI2
aI4
aI1
aa(lp1807
I1
aI10
aI13
aI14
aI15
aI11
aI12
aI0
aI6
aI3
aI5
aI7
aI2
aI4
aI9
aI8
aa(lp1808
I5
aI0
aI4
aI2
aI7
aI3
aI1
aI10
aI9
aI8
aI11
aI6
aa(lp1809
I5
aI6
aI2
aI4
aI0
aI7
aI3
aI1
aa(lp1810
I0
aI1
aa(lp1811
I0
aI2
aI7
aI4
aI8
aI6
aI18
aI20
aI15
aI17
aI3
aI10
aI14
aI11
aI5
aI1
aI13
aI19
aI12
aI9
aI16
aa(lp1812
I1
aI2
aI0
aa(lp1813
I8
aI7
aI21
aI16
aI22
aI17
aI4
aI23
aI3
aI28
aI0
aI25
aI1
aI26
aI20
aI5
aI13
aI11
aI19
aI18
aI12
aI6
aI9
aI2
aI14
aI10
aI27
aI15
aI24
aa(lp1814
I0
aI2
aI1
aI5
aI4
aI6
aI3
aa(lp1815
I1
aI8
aI6
aI7
aI14
aI9
aI3
aI16
aI12
aI4
aI15
aI10
aI13
aI11
aI0
aI17
aI2
aI5
aa(lp1816
I2
aI0
aI1
aa(lp1817
I22
aI0
aI18
aI4
aI16
aI10
aI8
aI21
aI14
aI9
aI5
aI3
aI6
aI13
aI19
aI7
aI20
aI2
aI17
aI23
aI27
aI26
aI12
aI15
aI24
aI11
aI25
aI1
aa(lp1818
I2
aI0
aI1
aa(lp1819
I30
aI0
aI41
aI31
aI15
aI3
aI38
aI5
aI2
aI39
aI33
aI19
aI21
aI20
aI1
aI36
aI35
aI32
aI18
aI34
aI4
aI13
aI27
aI42
aI14
aI22
aI28
aI23
aI40
aI37
aI17
aI24
aI16
aI6
aI43
aI9
aI25
aI12
aI26
aI10
aI7
aI29
aI44
aI11
aI8
aa(lp1820
I0
aI1
aI2
aI3
aI5
aI6
aI7
aI4
aa(lp1821
I2
aI3
aI1
aI0
aa(lp1822
I68
aI78
aI73
aI71
aI22
aI67
aI81
aI24
aI69
aI72
aI26
aI58
aI41
aI60
aI20
aI59
aI2
aI21
aI49
aI39
aI34
aI18
aI55
aI52
aI28
aI17
aI65
aI30
aI5
aI12
aI48
aI85
aI45
aI19
aI29
aI88
aI64
aI54
aI13
aI44
aI76
aI57
aI11
aI62
aI47
aI46
aI31
aI84
aI10
aI56
aI15
aI0
aI79
aI86
aI3
aI7
aI36
aI51
aI14
aI53
aI66
aI83
aI77
aI70
aI8
aI75
aI33
aI32
aI6
aI35
aI74
aI40
aI23
aI82
aI63
aI87
aI42
aI43
aI38
aI9
aI61
aI37
aI80
aI50
aI4
aI16
aI25
aI1
aI27
aa(lp1823
I7
aI4
aI2
aI0
aI6
aI8
aI5
aI1
aI3
aa(lp1824
I0
aI1
aa(lp1825
I14
aI37
aI10
aI27
aI26
aI15
aI31
aI29
aI24
aI22
aI18
aI38
aI23
aI39
aI32
aI28
aI25
aI17
aI16
aI13
aI12
aI11
aI9
aI8
aI7
aI6
aI5
aI4
aI3
aI2
aI1
aI40
aI36
aI43
aI42
aI41
aI34
aI33
aI30
aI35
aI21
aI20
aI19
aI0
aa(lp1826
I8
aI4
aI10
aI9
aI7
aI12
aI11
aI2
aI3
aI13
aI1
aI6
aI5
aI0
aa(lp1827
I0
aI20
aI10
aI1
aI15
aI23
aI2
aI12
aI11
aI17
aI24
aI18
aI6
aI21
aI14
aI3
aI22
aI4
aI13
aI8
aI7
aI9
aI19
aI5
aI16
aa(lp1828
I0
aI2
aI1
aI4
aI3
aa(lp1829
I1
aI6
aI5
aI10
aI7
aI16
aI12
aI2
aI0
aI14
aI8
aI4
aI13
aI11
aI15
aI9
aI3
aa(lp1830
I1
aI6
aI3
aI25
aI2
aI16
aI12
aI8
aI0
aI15
aI13
aI4
aI21
aI20
aI17
aI18
aI7
aI10
aI24
aI11
aI22
aI5
aI14
aI19
aI23
aI9
aa(lp1831
I5
aI4
aI0
aI2
aI3
aI1
aa(lp1832
I0
aI16
aI8
aI3
aI30
aI29
aI1
aI14
aI6
aI15
aI19
aI9
aI17
aI11
aI13
aI5
aI12
aI27
aI20
aI26
aI4
aI24
aI2
aI18
aI25
aI23
aI31
aI22
aI7
aI34
aI33
aI28
aI21
aI32
aI10
aa(lp1833
I8
aI18
aI22
aI15
aI16
aI23
aI21
aI9
aI14
aI1
aI13
aI19
aI20
aI7
aI11
aI3
aI17
aI12
aI6
aI4
aI10
aI5
aI2
aI0
aa(lp1834
I5
aI0
aI3
aI4
aI2
aI1
aa(lp1835
I1
aI12
aI25
aI24
aI10
aI9
aI19
aI23
aI13
aI11
aI8
aI15
aI7
aI29
aI28
aI27
aI26
aI22
aI21
aI20
aI18
aI17
aI16
aI14
aI6
aI5
aI4
aI3
aI2
aI0
aI31
aI30
aa(lp1836
I2
aI1
aI6
aI5
aI0
aI3
aI7
aI4
aa(lp1837
I1
aI13
aI14
aI15
aI11
aI8
aI10
aI0
aI4
aI7
aI6
aI16
aI12
aI3
aI9
aI5
aI2
aa(lp1838
I5
aI3
aI4
aI2
aI0
aI1
aa(lp1839
I1
aI2
aI0
aI3
aa(lp1840
I0
aI18
aI12
aI9
aI5
aI6
aI14
aI7
aI3
aI8
aI4
aI20
aI19
aI13
aI2
aI17
aI16
aI15
aI10
aI1
aI11
aa(lp1841
I2
aI10
aI3
aI9
aI19
aI13
aI11
aI15
aI1
aI20
aI4
aI5
aI0
aI21
aI16
aI18
aI12
aI14
aI6
aI8
aI7
aI17
aa(lp1842
I1
aI6
aI26
aI12
aI22
aI28
aI29
aI19
aI7
aI20
aI13
aI17
aI11
aI16
aI8
aI3
aI25
aI2
aI15
aI38
aI35
aI9
aI32
aI24
aI30
aI33
aI34
aI23
aI27
aI4
aI37
aI5
aI31
aI21
aI14
aI0
aI36
aI18
aI10
aa(lp1843
I3
aI13
aI8
aI4
aI0
aI5
aI1
aI7
aI19
aI20
aI12
aI23
aI16
aI18
aI24
aI21
aI22
aI17
aI25
aI26
aI6
aI28
aI11
aI15
aI2
aI10
aI9
aI14
aI30
aI29
aI27
aa(lp1844
I0
aI5
aI1
aI4
aI3
aI2
aa(lp1845
I1
aI3
aI2
aI0
aa(lp1846
I4
aI26
aI12
aI41
aI25
aI22
aI20
aI14
aI6
aI0
aI35
aI10
aI23
aI8
aI34
aI5
aI9
aI2
aI36
aI29
aI38
aI31
aI7
aI1
aI32
aI21
aI11
aI19
aI17
aI24
aI30
aI16
aI33
aI27
aI13
aI28
aI40
aI37
aI18
aI15
aI39
aI3
aa(lp1847
I1
aI0
aI3
aI2
aa(lp1848
I1
aI0
aI3
aI4
aI5
aI2
aa(lp1849
I0
aI10
aI5
aI2
aI4
aI3
aI1
aI9
aI6
aI8
aI7
aa(lp1850
I21
aI10
aI0
aI6
aI8
aI27
aI14
aI11
aI20
aI17
aI12
aI23
aI18
aI26
aI16
aI9
aI4
aI2
aI25
aI13
aI19
aI15
aI22
aI24
aI1
aI7
aI5
aI3
aa(lp1851
I1
aI6
aI4
aI2
aI5
aI3
aI0
aa(lp1852
I8
aI0
aI5
aI9
aI4
aI6
aI7
aI2
aI1
aI3
aa(lp1853
I6
aI4
aI5
aI2
aI3
aI0
aI1
aa(lp1854
I1
aI16
aI18
aI0
aI23
aI4
aI25
aI3
aI12
aI8
aI15
aI14
aI5
aI26
aI22
aI2
aI17
aI6
aI21
aI24
aI19
aI10
aI11
aI7
aI20
aI13
aI9
aI27
aa(lp1855
I3
aI24
aI5
aI21
aI9
aI31
aI20
aI14
aI12
aI13
aI32
aI30
aI25
aI23
aI22
aI19
aI18
aI16
aI8
aI6
aI4
aI2
aI1
aI0
aI11
aI29
aI28
aI26
aI17
aI15
aI10
aI27
aI7
aa(lp1856
I0
aI7
aI40
aI20
aI37
aI27
aI28
aI35
aI26
aI30
aI16
aI23
aI36
aI21
aI3
aI22
aI31
aI29
aI15
aI42
aI33
aI10
aI14
aI17
aI43
aI34
aI41
aI13
aI4
aI25
aI2
aI32
aI24
aI18
aI11
aI6
aI9
aI5
aI38
aI39
aI19
aI12
aI1
aI44
aI8
aa(lp1857
I1
aI3
aI6
aI7
aI2
aI5
aI4
aI0
aa(lp1858
I0
aI7
aI5
aI6
aI4
aI2
aI11
aI3
aI8
aI9
aI1
aI12
aI10
aa(lp1859
I0
aI1
aI5
aI17
aI6
aI3
aI18
aI19
aI12
aI2
aI10
aI15
aI20
aI9
aI7
aI21
aI11
aI8
aI14
aI4
aI16
aI13
aa(lp1860
I10
aI12
aI8
aI3
aI17
aI14
aI2
aI4
aI13
aI23
aI20
aI1
aI18
aI21
aI16
aI6
aI5
aI15
aI19
aI24
aI9
aI7
aI11
aI0
aI22
aa(lp1861
I4
aI14
aI7
aI0
aI16
aI10
aI11
aI2
aI15
aI8
aI19
aI17
aI18
aI21
aI6
aI3
aI9
aI5
aI20
aI1
aI13
aI12
aI22
aa(lp1862
I0
aI4
aI5
aI1
aI6
aI2
aI3
aa(lp1863
I6
aI0
aI2
aI3
aI1
aI5
aI4
aI7
aa(lp1864
I1
aI2
aI0
aI3
aa(lp1865
I1
aI0
aI3
aI6
aI7
aI5
aI4
aI2
aI9
aI8
aa(lp1866
I3
aI5
aI36
aI25
aI9
aI43
aI1
aI33
aI23
aI2
aI13
aI37
aI32
aI21
aI19
aI7
aI24
aI12
aI17
aI6
aI18
aI38
aI27
aI40
aI4
aI44
aI31
aI22
aI10
aI29
aI15
aI45
aI35
aI26
aI16
aI8
aI28
aI20
aI14
aI39
aI11
aI0
aI42
aI41
aI34
aI46
aI30
aa(lp1867
I5
aI8
aI19
aI32
aI21
aI34
aI4
aI9
aI7
aI33
aI15
aI17
aI27
aI26
aI30
aI25
aI18
aI14
aI12
aI31
aI20
aI23
aI10
aI16
aI6
aI0
aI1
aI29
aI22
aI2
aI28
aI24
aI13
aI11
aI3
aa(lp1868
I1
aI4
aI0
aI3
aI2
aI5
aa(lp1869
I7
aI4
aI0
aI1
aI6
aI5
aI3
aI2
aa(lp1870
I0
aI5
aI1
aI12
aI11
aI2
aI9
aI8
aI3
aI4
aI10
aI6
aI7
aa(lp1871
I6
aI9
aI8
aI3
aI1
aI7
aI5
aI4
aI0
aI2
aa(lp1872
I3
aI0
aI1
aI2
aa(lp1873
I3
aI21
aI29
aI12
aI6
aI5
aI17
aI4
aI34
aI10
aI32
aI22
aI11
aI28
aI23
aI19
aI8
aI24
aI15
aI31
aI30
aI16
aI9
aI7
aI33
aI25
aI27
aI18
aI14
aI13
aI1
aI26
aI2
aI20
aI0
aa(lp1874
I1
aI4
aI6
aI7
aI3
aI0
aI2
aI5
aa(lp1875
I0
aI2
aI1
aa(lp1876
I3
aI22
aI20
aI6
aI16
aI27
aI37
aI10
aI30
aI2
aI9
aI25
aI14
aI11
aI29
aI33
aI19
aI39
aI34
aI35
aI24
aI23
aI8
aI26
aI18
aI5
aI36
aI7
aI21
aI31
aI17
aI13
aI1
aI28
aI4
aI32
aI40
aI15
aI0
aI38
aI12
aa(lp1877
I1
aI4
aI2
aI3
aI0
aa(lp1878
I1
aI2
aI8
aI7
aI6
aI4
aI3
aI0
aI5
aa(lp1879
I1
aI0
aa(lp1880
I2
aI0
aI1
aa(lp1881
I15
aI11
aI25
aI14
aI21
aI6
aI3
aI13
aI22
aI18
aI17
aI8
aI7
aI26
aI19
aI2
aI20
aI9
aI1
aI16
aI10
aI24
aI23
aI5
aI12
aI0
aI4
aa(lp1882
I2
aI1
aI5
aI3
aI0
aI6
aI4
aa(lp1883
I7
aI1
aI5
aI0
aI2
aI6
aI9
aI3
aI11
aI8
aI10
aI4
aa(lp1884
I0
aI17
aI22
aI9
aI4
aI18
aI26
aI25
aI20
aI1
aI19
aI12
aI5
aI3
aI21
aI6
aI10
aI14
aI13
aI2
aI24
aI23
aI15
aI8
aI11
aI16
aI7
aa(lp1885
I3
aI2
aI0
aI1
aa(lp1886
I3
aI2
aI1
aI0
aa(lp1887
I1
aI4
aI0
aI6
aI3
aI5
aI2
aI10
aI7
aI12
aI20
aI14
aI11
aI17
aI24
aI23
aI22
aI19
aI18
aI15
aI13
aI9
aI8
aI21
aI16
aa(lp1888
I19
aI11
aI22
aI14
aI37
aI15
aI30
aI24
aI18
aI5
aI31
aI9
aI21
aI42
aI3
aI23
aI20
aI36
aI35
aI32
aI26
aI25
aI2
aI10
aI40
aI1
aI8
aI33
aI4
aI41
aI38
aI34
aI27
aI12
aI7
aI28
aI43
aI39
aI29
aI17
aI16
aI0
aI6
aI13
aa(lp1889
I3
aI0
aI2
aI1
aa(lp1890
I1
aI6
aI0
aI2
aI4
aI3
aI7
aI5
aa(lp1891
I0
aI2
aI8
aI1
aI26
aI21
aI9
aI19
aI17
aI10
aI13
aI32
aI22
aI11
aI29
aI16
aI18
aI23
aI38
aI28
aI35
aI20
aI6
aI5
aI14
aI7
aI27
aI39
aI34
aI12
aI40
aI3
aI4
aI30
aI15
aI25
aI33
aI24
aI31
aI37
aI36
aa(lp1892
I1
aI0
aa(lp1893
I16
aI14
aI19
aI13
aI5
aI26
aI20
aI9
aI31
aI27
aI1
aI23
aI17
aI8
aI12
aI0
aI4
aI6
aI2
aI7
aI11
aI22
aI24
aI3
aI18
aI25
aI28
aI21
aI30
aI15
aI10
aI29
aa(lp1894
I4
aI7
aI1
aI21
aI23
aI28
aI0
aI30
aI17
aI9
aI27
aI22
aI19
aI15
aI14
aI10
aI26
aI20
aI12
aI29
aI13
aI11
aI8
aI6
aI3
aI2
aI25
aI18
aI24
aI5
aI16
aa(lp1895
I0
aI1
aI4
aI2
aI5
aI3
aa(lp1896
I6
aI1
aI0
aI4
aI2
aI5
aI3
aa(lp1897
I0
aI1
aa(lp1898
I3
aI5
aI4
aI1
aI0
aI2
aa(lp1899
I1
aI8
aI4
aI6
aI5
aI3
aI7
aI2
aI0
aa(lp1900
I1
aI2
aI3
aI0
aa(lp1901
I1
aI3
aI2
aI0
aa(lp1902
I0
aI1
aI2
aa(lp1903
I1
aI3
aI2
aI0
aa(lp1904
I0
aI1
aa(lp1905
I1
aI0
aa(lp1906
I1
aI7
aI3
aI5
aI0
aI8
aI4
aI6
aI2
aa(lp1907
I0
aI18
aI11
aI23
aI1
aI15
aI10
aI22
aI9
aI5
aI4
aI20
aI7
aI17
aI16
aI6
aI3
aI8
aI14
aI19
aI12
aI21
aI13
aI2
aa(lp1908
I5
aI0
aI3
aI1
aI2
aI4
aa(lp1909
I4
aI2
aI10
aI1
aI6
aI18
aI5
aI22
aI23
aI12
aI24
aI3
aI9
aI7
aI8
aI11
aI30
aI29
aI19
aI28
aI21
aI26
aI20
aI25
aI14
aI13
aI0
aI31
aI27
aI16
aI17
aI15
aa(lp1910
I4
aI2
aI8
aI0
aI17
aI22
aI16
aI11
aI15
aI3
aI23
aI9
aI5
aI13
aI12
aI19
aI7
aI14
aI25
aI18
aI6
aI24
aI21
aI20
aI10
aI1
aa(lp1911
I4
aI8
aI2
aI11
aI6
aI9
aI1
aI0
aI3
aI12
aI7
aI10
aI5
aa(lp1912
I5
aI28
aI18
aI14
aI27
aI29
aI24
aI7
aI4
aI26
aI9
aI13
aI22
aI16
aI35
aI10
aI20
aI21
aI12
aI1
aI34
aI19
aI11
aI15
aI17
aI31
aI25
aI23
aI2
aI30
aI36
aI37
aI8
aI33
aI32
aI6
aI3
aI0
aa(lp1913
I1
aI4
aI31
aI20
aI26
aI24
aI28
aI6
aI10
aI23
aI17
aI7
aI9
aI5
aI21
aI8
aI19
aI18
aI15
aI14
aI13
aI3
aI25
aI16
aI12
aI11
aI2
aI50
aI49
aI48
aI47
aI46
aI45
aI44
aI43
aI42
aI40
aI39
aI38
aI37
aI36
aI35
aI34
aI33
aI32
aI30
aI29
aI27
aI22
aI41
aI0
aa(lp1914
I3
aI2
aI4
aI0
aI5
aI1
aa(lp1915
I21
aI7
aI0
aI28
aI34
aI35
aI22
aI46
aI10
aI26
aI47
aI18
aI2
aI48
aI45
aI37
aI30
aI15
aI19
aI36
aI44
aI42
aI38
aI33
aI32
aI29
aI9
aI1
aI40
aI41
aI31
aI24
aI39
aI20
aI23
aI16
aI13
aI11
aI8
aI43
aI27
aI25
aI17
aI14
aI12
aI5
aI4
aI3
aI6
aa(lp1916
I5
aI1
aI4
aI3
aI2
aI0
aa(lp1917
I5
aI21
aI3
aI26
aI2
aI25
aI23
aI6
aI1
aI13
aI12
aI4
aI8
aI24
aI19
aI14
aI7
aI0
aI15
aI18
aI16
aI11
aI10
aI17
aI28
aI22
aI20
aI27
aI9
aa(lp1918
I1
aI0
aI15
aI5
aI35
aI17
aI39
aI28
aI34
aI49
aI38
aI46
aI48
aI33
aI20
aI3
aI25
aI41
aI19
aI32
aI7
aI16
aI40
aI43
aI10
aI4
aI47
aI31
aI12
aI42
aI26
aI29
aI8
aI6
aI21
aI50
aI22
aI14
aI13
aI2
aI36
aI24
aI27
aI45
aI44
aI23
aI9
aI37
aI30
aI18
aI11
aa(lp1919
I4
aI7
aI3
aI0
aI12
aI13
aI2
aI1
aI11
aI6
aI9
aI8
aI10
aI5
aa(lp1920
I1
aI2
aI3
aI4
aI0
aa(lp1921
I5
aI3
aI10
aI7
aI2
aI0
aI15
aI6
aI13
aI9
aI19
aI8
aI14
aI4
aI17
aI1
aI12
aI16
aI11
aI18
aa(lp1922
I4
aI2
aI3
aI8
aI0
aI14
aI19
aI6
aI13
aI5
aI18
aI7
aI1
aI11
aI10
aI12
aI15
aI16
aI9
aI17
aa(lp1923
I18
aI10
aI8
aI1
aI6
aI20
aI12
aI22
aI11
aI9
aI13
aI4
aI16
aI5
aI15
aI14
aI21
aI17
aI7
aI2
aI3
aI19
aI0
aa(lp1924
I2
aI5
aI3
aI0
aI4
aI1
aa(lp1925
I0
aa(lp1926
I4
aI14
aI6
aI16
aI5
aI1
aI3
aI17
aI12
aI11
aI7
aI19
aI15
aI10
aI2
aI13
aI9
aI8
aI0
aI18
aa(lp1927
I12
aI19
aI4
aI2
aI6
aI5
aI0
aI9
aI20
aI3
aI7
aI22
aI15
aI13
aI21
aI23
aI8
aI1
aI14
aI18
aI11
aI17
aI10
aI16
aa(lp1928
I2
aI5
aI4
aI0
aI1
aI3
aa(lp1929
I0
aI2
aI1
aI3
aa(lp1930
I1
aI4
aI2
aI0
aI3
aa(lp1931
I28
aI0
aI37
aI18
aI11
aI36
aI23
aI33
aI41
aI27
aI14
aI39
aI35
aI31
aI22
aI7
aI30
aI42
aI40
aI26
aI24
aI19
aI44
aI13
aI5
aI25
aI9
aI49
aI34
aI4
aI29
aI21
aI16
aI8
aI6
aI47
aI2
aI38
aI32
aI20
aI15
aI46
aI10
aI17
aI45
aI3
aI48
aI1
aI43
aI12
aa(lp1932
I21
aI15
aI10
aI0
aI19
aI9
aI8
aI23
aI13
aI17
aI6
aI22
aI25
aI20
aI16
aI12
aI4
aI14
aI24
aI3
aI1
aI27
aI11
aI28
aI26
aI18
aI7
aI5
aI2
aa(lp1933
I2
aI1
aI19
aI25
aI32
aI28
aI23
aI13
aI20
aI21
aI27
aI5
aI16
aI9
aI26
aI10
aI17
aI18
aI15
aI0
aI30
aI31
aI11
aI22
aI3
aI24
aI12
aI7
aI29
aI4
aI14
aI8
aI6
aa(lp1934
I4
aI2
aI1
aI0
aI5
aI3
aa(lp1935
I0
aI9
aI7
aI14
aI15
aI18
aI16
aI13
aI5
aI6
aI8
aI1
aI3
aI21
aI10
aI17
aI11
aI2
aI12
aI19
aI20
aI4
aa(lp1936
I0
aI10
aI7
aI21
aI4
aI18
aI8
aI14
aI6
aI12
aI15
aI2
aI19
aI13
aI17
aI20
aI16
aI22
aI1
aI11
aI9
aI5
aI3
aa(lp1937
I1
aI17
aI9
aI6
aI16
aI8
aI5
aI15
aI10
aI4
aI14
aI7
aI3
aI12
aI2
aI0
aI11
aI13
aa(lp1938
I21
aI18
aI10
aI20
aI22
aI23
aI7
aI24
aI13
aI12
aI1
aI25
aI5
aI0
aI19
aI4
aI17
aI16
aI15
aI11
aI8
aI14
aI6
aI3
aI9
aI2
aa(lp1939
I3
aI1
aI2
aI0
aa(lp1940
I7
aI8
aI9
aI5
aI4
aI10
aI0
aI6
aI2
aI3
aI1
aa(lp1941
I1
aI10
aI6
aI9
aI5
aI2
aI0
aI4
aI7
aI8
aI3
aa(lp1942
I1
aI13
aI5
aI0
aI12
aI2
aI11
aI9
aI7
aI3
aI10
aI8
aI6
aI4
aa(lp1943
I45
aI41
aI30
aI19
aI22
aI6
aI37
aI25
aI11
aI16
aI4
aI26
aI3
aI5
aI12
aI13
aI17
aI32
aI35
aI36
aI29
aI24
aI39
aI42
aI40
aI20
aI33
aI14
aI23
aI9
aI15
aI2
aI38
aI44
aI43
aI18
aI31
aI28
aI34
aI0
aI27
aI21
aI10
aI1
aI7
aI8
aa(lp1944
I0
aI2
aI1
aa(lp1945
I0
aI13
aI6
aI12
aI7
aI2
aI11
aI1
aI3
aI14
aI8
aI5
aI9
aI10
aI4
aa(lp1946
I6
aI20
aI18
aI14
aI11
aI10
aI9
aI31
aI17
aI28
aI8
aI0
aI4
aI24
aI25
aI23
aI2
aI3
aI19
aI7
aI29
aI1
aI21
aI16
aI15
aI13
aI27
aI30
aI5
aI26
aI22
aI12
aa(lp1947
I1
aI29
aI9
aI18
aI38
aI36
aI12
aI4
aI28
aI7
aI14
aI26
aI3
aI6
aI40
aI10
aI16
aI20
aI33
aI8
aI37
aI11
aI15
aI27
aI5
aI30
aI17
aI2
aI24
aI25
aI21
aI22
aI31
aI32
aI35
aI13
aI23
aI39
aI34
aI19
aI0
aa(lp1948
I0
aa(lp1949
I6
aI9
aI34
aI22
aI4
aI35
aI27
aI38
aI30
aI5
aI17
aI36
aI33
aI20
aI2
aI3
aI19
aI7
aI32
aI23
aI18
aI25
aI28
aI21
aI37
aI31
aI16
aI26
aI12
aI8
aI39
aI29
aI1
aI40
aI24
aI14
aI10
aI13
aI0
aI15
aI11
aa(lp1950
I0
aI1
aI4
aI3
aI2
aa(lp1951
I5
aI4
aI1
aI2
aI6
aI3
aI0
aa(lp1952
I11
aI5
aI6
aI2
aI10
aI9
aI8
aI7
aI4
aI3
aI1
aI0
aa(lp1953
I0
aa(lp1954
I5
aI2
aI0
aI4
aI3
aI1
aa(lp1955
I1
aI3
aI2
aI0
aa(lp1956
I7
aI4
aI10
aI8
aI15
aI13
aI12
aI2
aI6
aI9
aI14
aI11
aI3
aI1
aI5
aI0
aI16
aa(lp1957
I27
aI16
aI15
aI8
aI4
aI20
aI23
aI22
aI11
aI14
aI12
aI29
aI28
aI19
aI18
aI17
aI13
aI9
aI7
aI6
aI5
aI3
aI1
aI0
aI10
aI26
aI25
aI24
aI21
aI2
aa(lp1958
I5
aI3
aI1
aI0
aI7
aI6
aI4
aI2
aa(lp1959
I1
aI4
aI5
aI3
aI6
aI7
aI2
aI8
aI0
aa(lp1960
I16
aI0
aI11
aI19
aI4
aI15
aI3
aI21
aI22
aI10
aI17
aI13
aI1
aI8
aI18
aI2
aI12
aI24
aI7
aI6
aI20
aI23
aI14
aI5
aI9
aa(lp1961
I6
aI4
aI10
aI15
aI11
aI7
aI18
aI14
aI12
aI2
aI13
aI8
aI17
aI9
aI1
aI19
aI5
aI16
aI0
aI3
aa(lp1962
I1
aI3
aI2
aI0
aa(lp1963
I2
aI6
aI7
aI4
aI0
aI5
aI3
aI1
aa(lp1964
I2
aI1
aI3
aI0
aa(lp1965
I0
aI2
aI3
aI1
aI5
aI4
aI6
aa(lp1966
I6
aI3
aI0
aI1
aI4
aI2
aI5
aa(lp1967
I16
aI8
aI17
aI12
aI11
aI10
aI6
aI1
aI0
aI18
aI2
aI5
aI14
aI15
aI13
aI9
aI7
aI4
aI3
aa(lp1968
I15
aI8
aI10
aI3
aI11
aI14
aI18
aI17
aI7
aI4
aI12
aI2
aI1
aI9
aI0
aI13
aI16
aI5
aI6
aa(lp1969
I1
aI5
aI2
aI3
aI7
aI4
aI6
aI0
aa(lp1970
I13
aI12
aI2
aI11
aI9
aI8
aI6
aI4
aI10
aI14
aI7
aI0
aI5
aI3
aI1
aa(lp1971
I3
aI0
aI1
aI5
aI6
aI4
aI2
aa(lp1972
I0
aI1
aI2
aI3
aI4
aa(lp1973
I1
aI31
aI14
aI24
aI19
aI27
aI28
aI15
aI10
aI32
aI9
aI41
aI39
aI34
aI30
aI23
aI21
aI17
aI22
aI16
aI42
aI35
aI2
aI25
aI20
aI37
aI33
aI26
aI18
aI13
aI12
aI0
aI5
aI8
aI40
aI36
aI29
aI11
aI4
aI3
aI38
aI7
aI6
aa(lp1974
I3
aI1
aI2
aI10
aI7
aI6
aI9
aI4
aI8
aI5
aI0
aa(lp1975
I0
aI19
aI7
aI5
aI4
aI2
aI6
aI15
aI11
aI9
aI13
aI16
aI3
aI8
aI14
aI18
aI12
aI1
aI10
aI17
aI20
aa(lp1976
I1
aI5
aI4
aI2
aI6
aI7
aI3
aI0
aa(lp1977
I0
aI10
aI2
aI1
aI4
aI3
aI9
aI7
aI12
aI15
aI16
aI6
aI13
aI11
aI5
aI14
aI8
aa(lp1978
I6
aI5
aI1
aI0
aI2
aI4
aI3
aa(lp1979
I11
aI1
aI7
aI12
aI0
aI14
aI2
aI5
aI4
aI9
aI13
aI6
aI10
aI3
aI8
aa(lp1980
I7
aI8
aI9
aI1
aI11
aI4
aI5
aI6
aI2
aI0
aI10
aI12
aI3
aa(lp1981
I10
aI0
aI11
aI32
aI7
aI30
aI16
aI4
aI22
aI19
aI15
aI33
aI28
aI26
aI17
aI14
aI8
aI6
aI25
aI38
aI21
aI5
aI23
aI24
aI31
aI12
aI18
aI29
aI35
aI27
aI20
aI36
aI3
aI37
aI1
aI9
aI2
aI34
aI13
aa(lp1982
I2
aI0
aI11
aI1
aI7
aI5
aI12
aI10
aI8
aI6
aI4
aI3
aI9
aa(lp1983
I13
aI8
aI27
aI20
aI33
aI24
aI19
aI2
aI10
aI22
aI3
aI11
aI18
aI23
aI1
aI17
aI4
aI26
aI15
aI6
aI25
aI5
aI28
aI16
aI32
aI9
aI0
aI14
aI29
aI21
aI7
aI35
aI37
aI31
aI12
aI34
aI30
aI36
aa(lp1984
I1
aI3
aI4
aI6
aI5
aI2
aI0
aa(lp1985
I2
aI5
aI3
aI7
aI4
aI9
aI8
aI0
aI1
aI10
aI6
aa(lp1986
I6
aI3
aI2
aI1
aI7
aI5
aI4
aI0
aa(lp1987
I3
aI0
aI2
aI5
aI1
aI4
aa(lp1988
I1
aI0
aI9
aI6
aI4
aI2
aI8
aI5
aI7
aI3
aa(lp1989
I26
aI17
aI2
aI25
aI19
aI15
aI6
aI11
aI20
aI28
aI8
aI16
aI27
aI23
aI18
aI0
aI21
aI14
aI22
aI24
aI9
aI13
aI5
aI4
aI1
aI10
aI3
aI7
aI12
aa(lp1990
I1
aI0
aI3
aI2
aI14
aI7
aI9
aI11
aI10
aI13
aI12
aI4
aI15
aI8
aI6
aI5
aa(lp1991
I3
aI2
aI0
aI1
aa(lp1992
I1
aI0
aa(lp1993
I19
aI18
aI6
aI5
aI2
aI28
aI24
aI10
aI4
aI25
aI8
aI27
aI26
aI17
aI0
aI3
aI16
aI23
aI22
aI14
aI1
aI7
aI21
aI20
aI12
aI11
aI15
aI13
aI9
aa(lp1994
I13
aI3
aI12
aI18
aI21
aI16
aI26
aI2
aI27
aI10
aI9
aI24
aI17
aI23
aI15
aI1
aI14
aI8
aI7
aI25
aI30
aI29
aI28
aI11
aI5
aI4
aI19
aI6
aI22
aI20
aI0
aa(lp1995
I0
aI4
aI1
aI13
aI2
aI10
aI9
aI3
aI6
aI12
aI11
aI8
aI7
aI5
aa(lp1996
I0
aI28
aI20
aI12
aI6
aI11
aI2
aI27
aI14
aI10
aI29
aI3
aI23
aI26
aI9
aI13
aI24
aI7
aI18
aI21
aI19
aI8
aI17
aI4
aI15
aI16
aI25
aI5
aI1
aI22
aa(lp1997
I1
aI4
aI3
aI2
aI0
aa(lp1998
I5
aI0
aI1
aI3
aI2
aI4
aa(lp1999
I7
aI5
aI10
aI4
aI2
aI13
aI9
aI12
aI0
aI8
aI6
aI1
aI3
aI15
aI11
aI14
aa(lp2000
I0
aI10
aI5
aI13
aI21
aI8
aI3
aI2
aI20
aI1
aI24
aI7
aI12
aI6
aI19
aI23
aI9
aI11
aI16
aI17
aI4
aI22
aI18
aI15
aI14
aa(lp2001
I1
aI2
aI4
aI5
aI7
aI0
aI6
aI3
aa(lp2002
I6
aI5
aI8
aI3
aI7
aI4
aI2
aI1
aI0
aa(lp2003
I0
aI1
aa(lp2004
I2
aI1
aI4
aI0
aI3
aI5
aa(lp2005
I1
aI5
aI2
aI4
aI3
aI0
aI6
aa(lp2006
I3
aI2
aI0
aI1
aI4
aa(lp2007
I0
aI18
aI21
aI6
aI11
aI5
aI22
aI7
aI14
aI8
aI4
aI25
aI12
aI20
aI3
aI24
aI9
aI15
aI13
aI17
aI16
aI2
aI10
aI26
aI19
aI23
aI1
aI27
aa(lp2008
I3
aI18
aI16
aI19
aI6
aI11
aI13
aI15
aI10
aI0
aI4
aI12
aI20
aI14
aI9
aI21
aI17
aI8
aI7
aI22
aI2
aI1
aI5
aa(lp2009
I3
aI0
aI9
aI10
aI8
aI7
aI4
aI6
aI2
aI12
aI5
aI1
aI11
aa(lp2010
I1
aI10
aI5
aI0
aI9
aI7
aI4
aI8
aI6
aI3
aI2
aa(lp2011
I2
aI9
aI15
aI6
aI11
aI19
aI16
aI10
aI1
aI14
aI7
aI12
aI17
aI5
aI18
aI13
aI3
aI8
aI0
aI4
aa(lp2012
I24
aI1
aI4
aI21
aI5
aI18
aI16
aI9
aI0
aI19
aI25
aI20
aI13
aI17
aI12
aI8
aI6
aI23
aI2
aI3
aI22
aI15
aI7
aI11
aI14
aI10
aa(lp2013
I18
aI3
aI1
aI19
aI8
aI35
aI12
aI17
aI39
aI26
aI2
aI21
aI28
aI32
aI22
aI25
aI10
aI30
aI27
aI20
aI34
aI16
aI31
aI24
aI9
aI6
aI46
aI38
aI23
aI14
aI44
aI40
aI45
aI29
aI37
aI43
aI13
aI41
aI11
aI4
aI33
aI36
aI5
aI7
aI42
aI15
aI0
aa(lp2014
I0
aI2
aI1
aI3
aI5
aI4
aa(lp2015
I6
aI8
aI27
aI21
aI4
aI13
aI29
aI17
aI20
aI5
aI0
aI32
aI24
aI22
aI2
aI12
aI23
aI30
aI18
aI15
aI3
aI26
aI28
aI31
aI11
aI25
aI19
aI16
aI10
aI7
aI14
aI9
aI1
aa(lp2016
I12
aI5
aI7
aI1
aI18
aI22
aI27
aI16
aI13
aI10
aI26
aI11
aI14
aI9
aI8
aI20
aI4
aI3
aI25
aI0
aI17
aI6
aI19
aI15
aI24
aI2
aI21
aI23
aa(lp2017
I1
aI3
aI6
aI0
aI7
aI4
aI2
aI5
aa(lp2018
I1
aI7
aI13
aI10
aI2
aI11
aI4
aI14
aI9
aI5
aI17
aI15
aI6
aI0
aI16
aI12
aI3
aI8
aa(lp2019
I0
aI3
aI2
aI1
aa(lp2020
I9
aI5
aI3
aI2
aI14
aI7
aI1
aI6
aI0
aI12
aI11
aI8
aI13
aI10
aI4
aa(lp2021
I3
aI2
aI12
aI8
aI7
aI10
aI5
aI4
aI1
aI11
aI9
aI6
aI0
aa(lp2022
I1
aI5
aI7
aI3
aI6
aI2
aI0
aI8
aI4
aa(lp2023
I33
aI28
aI6
aI4
aI25
aI11
aI23
aI1
aI32
aI18
aI36
aI38
aI20
aI37
aI35
aI45
aI10
aI31
aI21
aI8
aI7
aI24
aI14
aI22
aI12
aI2
aI27
aI5
aI13
aI34
aI40
aI0
aI17
aI43
aI16
aI44
aI41
aI39
aI29
aI26
aI19
aI9
aI3
aI30
aI42
aI15
aa(lp2024
I0
aI3
aI5
aI2
aI7
aI6
aI9
aI1
aI8
aI4
aa(lp2025
I3
aI1
aI0
aI2
aa(lp2026
I1
aI2
aI0
aI3
aa(lp2027
I18
aI9
aI5
aI11
aI13
aI12
aI3
aI19
aI14
aI10
aI6
aI15
aI22
aI7
aI0
aI8
aI17
aI25
aI16
aI23
aI2
aI26
aI1
aI4
aI27
aI24
aI21
aI20
aa(lp2028
I1
aI6
aI5
aI4
aI2
aI7
aI3
aI0
aa(lp2029
I0
aI1
aI2
aa(lp2030
I29
aI0
aI24
aI7
aI27
aI26
aI1
aI4
aI22
aI5
aI16
aI18
aI19
aI33
aI13
aI35
aI25
aI23
aI3
aI14
aI30
aI15
aI34
aI21
aI11
aI6
aI9
aI10
aI28
aI31
aI12
aI20
aI17
aI2
aI32
aI8
aa(lp2031
I2
aI0
aI1
aI4
aI3
aa(lp2032
I6
aI8
aI9
aI4
aI5
aI0
aI10
aI7
aI1
aI2
aI3
aa(lp2033
I7
aI2
aI3
aI6
aI5
aI4
aI1
aI0
aa(lp2034
I2
aI1
aI4
aI6
aI12
aI11
aI8
aI7
aI9
aI5
aI10
aI3
aI0
aa(lp2035
I7
aI10
aI18
aI6
aI5
aI15
aI1
aI4
aI13
aI12
aI8
aI24
aI3
aI25
aI19
aI21
aI26
aI23
aI9
aI17
aI22
aI27
aI14
aI11
aI16
aI20
aI0
aI2
aa(lp2036
I8
aI4
aI0
aI1
aI7
aI5
aI3
aI9
aI6
aI2
aa(lp2037
I1
aI0
aI16
aI3
aI15
aI11
aI14
aI4
aI7
aI13
aI2
aI5
aI9
aI17
aI12
aI8
aI6
aI10
aa(lp2038
I0
aI13
aI10
aI2
aI5
aI12
aI1
aI14
aI7
aI16
aI15
aI4
aI3
aI8
aI17
aI11
aI9
aI6
aa(lp2039
I18
aI1
aI3
aI11
aI8
aI0
aI17
aI14
aI15
aI6
aI10
aI7
aI19
aI16
aI22
aI12
aI20
aI13
aI4
aI9
aI5
aI21
aI2
aa(lp2040
I5
aI2
aI3
aI0
aI4
aI1
aa(lp2041
I0
aI6
aI7
aI5
aI2
aI8
aI4
aI10
aI1
aI9
aI3
aa(lp2042
I0
aI10
aI9
aI12
aI11
aI8
aI13
aI6
aI5
aI4
aI3
aI2
aI1
aI7
aa(lp2043
I6
aI7
aI3
aI2
aI4
aI14
aI0
aI1
aI13
aI9
aI11
aI8
aI12
aI5
aI10
aa(lp2044
I1
aI7
aI12
aI4
aI20
aI3
aI13
aI19
aI5
aI6
aI2
aI8
aI17
aI14
aI16
aI10
aI15
aI11
aI18
aI9
aI0
aa(lp2045
I1
aI13
aI0
aI2
aI11
aI12
aI10
aI3
aI15
aI14
aI8
aI7
aI6
aI4
aI9
aI5
aa(lp2046
I0
aI21
aI4
aI9
aI8
aI3
aI18
aI13
aI17
aI7
aI5
aI15
aI11
aI16
aI12
aI22
aI14
aI19
aI1
aI23
aI20
aI10
aI6
aI2
aa(lp2047
I5
aI3
aI4
aI2
aI1
aI0
aa(lp2048
I0
aa(lp2049
I0
aI9
aI1
aI11
aI4
aI6
aI12
aI2
aI3
aI10
aI8
aI7
aI5
aa(lp2050
I3
aI1
aI4
aI0
aI2
aa(lp2051
I4
aI1
aI0
aI2
aI5
aI6
aI7
aI3
aa(lp2052
I6
aI7
aI0
aI1
aI4
aI2
aI5
aI3
aa(lp2053
I3
aI0
aI5
aI1
aI6
aI4
aI2
aa(lp2054
I3
aI1
aI6
aI2
aI5
aI4
aI0
aa(lp2055
I1
aI12
aI17
aI0
aI22
aI15
aI16
aI29
aI13
aI5
aI25
aI11
aI26
aI9
aI18
aI21
aI20
aI24
aI3
aI32
aI14
aI6
aI28
aI31
aI4
aI27
aI30
aI2
aI8
aI10
aI7
aI19
aI23
aa(lp2056
I0
aI2
aI6
aI11
aI7
aI5
aI10
aI9
aI1
aI12
aI8
aI3
aI4
aa(lp2057
I7
aI2
aI0
aI1
aI8
aI5
aI3
aI6
aI4
aa(lp2058
I4
aI40
aI24
aI5
aI43
aI18
aI12
aI31
aI25
aI9
aI36
aI28
aI6
aI22
aI2
aI48
aI49
aI11
aI51
aI50
aI38
aI32
aI26
aI7
aI16
aI0
aI45
aI3
aI13
aI47
aI42
aI37
aI34
aI29
aI27
aI17
aI10
aI52
aI44
aI33
aI30
aI8
aI23
aI35
aI21
aI15
aI41
aI19
aI46
aI39
aI14
aI20
aI1
aa(lp2059
I11
aI8
aI13
aI1
aI2
aI9
aI6
aI4
aI10
aI7
aI5
aI12
aI3
aI0
aa(lp2060
I2
aI1
aI0
aI4
aI6
aI5
aI3
aa(lp2061
I3
aI0
aI1
aI2
aa(lp2062
I34
aI18
aI11
aI6
aI10
aI7
aI22
aI12
aI35
aI26
aI9
aI5
aI20
aI13
aI3
aI8
aI2
aI31
aI28
aI23
aI21
aI17
aI15
aI14
aI30
aI29
aI27
aI33
aI25
aI24
aI16
aI4
aI1
aI32
aI19
aI0
aa(lp2063
I3
aI2
aI5
aI1
aI16
aI4
aI12
aI7
aI13
aI9
aI6
aI0
aI18
aI8
aI15
aI17
aI19
aI10
aI14
aI20
aI11
aa(lp2064
I3
aI0
aI1
aI6
aI4
aI2
aI7
aI8
aI5
aa(lp2065
I53
aI0
aI41
aI47
aI29
aI46
aI45
aI25
aI16
aI59
aI48
aI40
aI36
aI35
aI31
aI23
aI18
aI14
aI50
aI49
aI13
aI62
aI55
aI51
aI38
aI32
aI27
aI20
aI17
aI15
aI4
aI3
aI52
aI2
aI1
aI61
aI57
aI44
aI43
aI42
aI34
aI33
aI30
aI28
aI26
aI24
aI22
aI19
aI12
aI11
aI10
aI9
aI8
aI6
aI54
aI60
aI37
aI58
aI56
aI39
aI21
aI7
aI5
aa(lp2066
I9
aI1
aI10
aI3
aI17
aI8
aI15
aI2
aI13
aI4
aI11
aI12
aI16
aI7
aI14
aI0
aI6
aI5
aa(lp2067
I6
aI3
aI0
aI9
aI4
aI8
aI7
aI5
aI1
aI2
aa(lp2068
I1
aI2
aI0
aa(lp2069
I6
aI24
aI3
aI10
aI19
aI15
aI7
aI22
aI12
aI21
aI16
aI27
aI23
aI17
aI11
aI0
aI4
aI13
aI20
aI25
aI9
aI8
aI14
aI28
aI26
aI2
aI1
aI5
aI18
aa(lp2070
I1
aI0
aa(lp2071
I2
aI3
aI1
aI0
aa(lp2072
I0
aI2
aI6
aI1
aI7
aI12
aI8
aI13
aI9
aI14
aI4
aI5
aI3
aI11
aI10
aa(lp2073
I2
aI1
aI3
aI0
aa(lp2074
I3
aI11
aI9
aI14
aI10
aI6
aI5
aI2
aI1
aI0
aI4
aI15
aI13
aI16
aI20
aI12
aI8
aI19
aI18
aI17
aI7
aa(lp2075
I1
aI0
aI2
aI5
aI6
aI12
aI11
aI7
aI10
aI4
aI8
aI3
aI9
aa(lp2076
I1
aI0
aa(lp2077
I2
aI1
aI5
aI0
aI3
aI6
aI4
aa(lp2078
I1
aI6
aI8
aI5
aI0
aI7
aI4
aI3
aI2
aa(lp2079
I7
aI5
aI0
aI11
aI8
aI2
aI3
aI12
aI6
aI1
aI10
aI4
aI13
aI9
aa(lp2080
I0
aI1
aI2
aa(lp2081
I1
aI2
aI14
aI18
aI3
aI6
aI17
aI33
aI16
aI22
aI21
aI7
aI31
aI8
aI27
aI29
aI24
aI37
aI13
aI32
aI26
aI10
aI5
aI34
aI20
aI15
aI11
aI23
aI25
aI12
aI30
aI9
aI35
aI4
aI28
aI36
aI19
aI0
aa(lp2082
I2
aI0
aI3
aI12
aI15
aI5
aI8
aI14
aI4
aI9
aI1
aI11
aI6
aI10
aI13
aI7
aa(lp2083
I0
aI4
aI3
aI1
aI2
aa(lp2084
I3
aI21
aI20
aI16
aI25
aI8
aI17
aI14
aI13
aI6
aI18
aI7
aI24
aI23
aI9
aI19
aI12
aI11
aI0
aI22
aI15
aI10
aI5
aI2
aI1
aI4
aa(lp2085
I15
aI10
aI5
aI11
aI6
aI14
aI0
aI16
aI9
aI4
aI17
aI3
aI7
aI12
aI8
aI1
aI2
aI13
aa(lp2086
I6
aI13
aI14
aI7
aI15
aI3
aI8
aI10
aI5
aI12
aI1
aI9
aI0
aI11
aI2
aI4
aa(lp2087
I1
aI5
aI4
aI0
aI3
aI2
aa(lp2088
I0
aI4
aI8
aI5
aI13
aI3
aI11
aI9
aI7
aI1
aI6
aI10
aI2
aI15
aI14
aI12
aa(lp2089
I2
aI1
aI0
aa(lp2090
I0
aI3
aI1
aI2
aa(lp2091
I0
aI6
aI8
aI18
aI3
aI11
aI9
aI17
aI13
aI4
aI19
aI15
aI5
aI1
aI7
aI16
aI10
aI14
aI2
aI12
aa(lp2092
I1
aI6
aI26
aI18
aI8
aI28
aI23
aI25
aI19
aI17
aI15
aI7
aI34
aI31
aI22
aI21
aI3
aI36
aI20
aI10
aI35
aI13
aI12
aI33
aI24
aI11
aI4
aI9
aI29
aI32
aI38
aI16
aI37
aI27
aI5
aI0
aI14
aI30
aI2
aa(lp2093
I7
aI3
aI9
aI0
aI4
aI5
aI6
aI8
aI2
aI1
aa(lp2094
I2
aI1
aI16
aI13
aI7
aI3
aI12
aI5
aI14
aI6
aI15
aI10
aI17
aI9
aI8
aI0
aI11
aI4
aa(lp2095
I4
aI0
aI1
aI5
aI3
aI2
aa(lp2096
I5
aI2
aI0
aI4
aI3
aI1
aa(lp2097
I0
aI19
aI15
aI11
aI3
aI18
aI17
aI13
aI1
aI16
aI12
aI6
aI5
aI7
aI4
aI14
aI10
aI9
aI8
aI2
aa(lp2098
I0
aI1
aI2
aI3
aa(lp2099
I13
aI12
aI3
aI14
aI4
aI6
aI2
aI0
aI17
aI7
aI9
aI11
aI8
aI16
aI15
aI10
aI5
aI1
aa(lp2100
I0
aI1
aI2
aa(lp2101
I4
aI2
aI1
aI0
aI3
aa(lp2102
I2
aI1
aI0
aa(lp2103
I9
aI2
aI1
aI8
aI6
aI3
aI18
aI13
aI7
aI5
aI17
aI12
aI15
aI11
aI14
aI10
aI16
aI0
aI4
aa(lp2104
I5
aI0
aI10
aI7
aI11
aI12
aI6
aI2
aI9
aI4
aI1
aI8
aI3
aa(lp2105
I5
aI4
aI0
aI6
aI3
aI2
aI1
aa(lp2106
I22
aI1
aI4
aI9
aI38
aI21
aI16
aI39
aI8
aI12
aI15
aI23
aI14
aI3
aI19
aI36
aI7
aI25
aI6
aI20
aI37
aI33
aI11
aI24
aI28
aI35
aI10
aI27
aI26
aI34
aI13
aI30
aI29
aI17
aI32
aI18
aI5
aI0
aI31
aI2
aa(lp2107
I1
aI0
aa(lp2108
I0
aI1
aI2
aI3
aI4
aa(lp2109
I9
aI60
aI47
aI48
aI36
aI23
aI16
aI20
aI51
aI31
aI24
aI37
aI32
aI44
aI58
aI10
aI38
aI35
aI33
aI59
aI39
aI34
aI57
aI30
aI61
aI56
aI40
aI26
aI50
aI55
aI15
aI54
aI45
aI41
aI29
aI28
aI27
aI5
aI52
aI25
aI17
aI49
aI21
aI0
aI14
aI18
aI13
aI2
aI42
aI46
aI7
aI12
aI11
aI53
aI43
aI1
aI19
aI8
aI4
aI6
aI22
aI3
aa(lp2110
I1
aI2
aI0
aa(lp2111
I1
aI2
aI0
aa(lp2112
I12
aI5
aI14
aI2
aI0
aI17
aI15
aI9
aI20
aI16
aI11
aI4
aI18
aI10
aI6
aI8
aI19
aI13
aI1
aI3
aI7
aa(lp2113
I5
aI7
aI6
aI1
aI8
aI4
aI0
aI9
aI3
aI10
aI2
aa(lp2114
I0
aa(lp2115
I3
aI2
aI1
aI0
aa(lp2116
I1
aI7
aI6
aI5
aI4
aI2
aI0
aI3
aa(lp2117
I1
aI4
aI3
aI2
aI0
aa(lp2118
I1
aI0
aa(lp2119
I2
aI6
aI9
aI5
aI10
aI8
aI3
aI7
aI4
aI0
aI1
aa(lp2120
I11
aI15
aI0
aI17
aI5
aI6
aI1
aI4
aI14
aI3
aI8
aI12
aI13
aI10
aI16
aI7
aI9
aI2
aa(lp2121
I0
aI1
aI3
aI2
aa(lp2122
I3
aI1
aI2
aI0
aa(lp2123
I0
aI1
aa(lp2124
I0
aI4
aI3
aI2
aI5
aI1
aI7
aI6
aa(lp2125
I16
aI12
aI2
aI11
aI10
aI18
aI6
aI30
aI15
aI14
aI8
aI5
aI4
aI9
aI17
aI7
aI29
aI25
aI24
aI23
aI21
aI20
aI19
aI13
aI3
aI1
aI0
aI28
aI27
aI26
aI22
aa(lp2126
I0
aI1
aI5
aI4
aI6
aI2
aI8
aI9
aI7
aI3
aa(lp2127
I6
aI1
aI9
aI8
aI7
aI5
aI4
aI3
aI2
aI0
aa(lp2128
I8
aI0
aI7
aI10
aI6
aI4
aI11
aI9
aI2
aI1
aI5
aI3
aa(lp2129
I4
aI6
aI7
aI11
aI0
aI12
aI5
aI3
aI10
aI9
aI8
aI2
aI1
aa(lp2130
I0
aI1
aa(lp2131
I7
aI18
aI16
aI15
aI24
aI14
aI5
aI3
aI17
aI11
aI20
aI25
aI0
aI13
aI8
aI12
aI19
aI10
aI6
aI21
aI9
aI23
aI27
aI22
aI2
aI26
aI28
aI29
aI1
aI4
aa(lp2132
I1
aI6
aI9
aI7
aI3
aI12
aI10
aI2
aI13
aI8
aI5
aI0
aI4
aI11
aI14
aa(lp2133
I0
aI2
aI1
aa(lp2134
I4
aI17
aI0
aI8
aI16
aI19
aI21
aI7
aI5
aI15
aI12
aI20
aI1
aI18
aI13
aI11
aI10
aI2
aI14
aI3
aI9
aI6
aa(lp2135
I6
aI15
aI11
aI16
aI2
aI0
aI8
aI5
aI7
aI13
aI1
aI4
aI3
aI10
aI9
aI14
aI12
aa(lp2136
I7
aI10
aI9
aI16
aI34
aI26
aI12
aI20
aI3
aI14
aI22
aI33
aI17
aI19
aI15
aI6
aI11
aI23
aI4
aI1
aI25
aI37
aI35
aI31
aI32
aI28
aI2
aI8
aI27
aI24
aI21
aI36
aI5
aI30
aI0
aI29
aI13
aI18
aa(lp2137
I2
aI8
aI7
aI1
aI14
aI12
aI5
aI9
aI6
aI15
aI11
aI3
aI10
aI0
aI13
aI4
aa(lp2138
I0
aI14
aI3
aI8
aI9
aI12
aI10
aI13
aI11
aI4
aI15
aI7
aI2
aI5
aI1
aI16
aI6
aa(lp2139
I1
aI2
aI3
aI7
aI4
aI0
aI8
aI6
aI5
aa(lp2140
I5
aI0
aI1
aI8
aI4
aI2
aI9
aI12
aI10
aI7
aI11
aI6
aI3
aa(lp2141
I35
aI1
aI5
aI7
aI31
aI12
aI33
aI23
aI27
aI20
aI37
aI30
aI26
aI17
aI36
aI22
aI18
aI25
aI16
aI4
aI10
aI2
aI39
aI42
aI45
aI29
aI21
aI14
aI32
aI3
aI46
aI6
aI34
aI9
aI44
aI11
aI28
aI0
aI41
aI38
aI8
aI43
aI19
aI24
aI15
aI40
aI13
aa(lp2142
I2
aI0
aI1
aa(lp2143
I3
aI0
aI2
aI4
aI1
aa(lp2144
I0
aI2
aI1
aa(lp2145
I0
aI23
aI12
aI6
aI27
aI4
aI7
aI24
aI16
aI25
aI8
aI10
aI1
aI17
aI21
aI18
aI5
aI9
aI2
aI22
aI26
aI3
aI13
aI20
aI19
aI15
aI14
aI11
aa(lp2146
I3
aI1
aI4
aI0
aI2
aa(lp2147
I10
aI9
aI8
aI7
aI6
aI5
aI4
aI3
aI2
aI1
aI0
aa(lp2148
I1
aI2
aI5
aI3
aI4
aI0
aa(lp2149
I1
aI2
aI6
aI4
aI9
aI5
aI8
aI3
aI7
aI0
aa(lp2150
I5
aI9
aI0
aI11
aI17
aI18
aI4
aI12
aI6
aI13
aI1
aI7
aI3
aI10
aI2
aI16
aI15
aI19
aI8
aI14
aa(lp2151
I13
aI11
aI6
aI4
aI25
aI22
aI20
aI14
aI10
aI16
aI8
aI5
aI24
aI2
aI9
aI17
aI21
aI3
aI23
aI19
aI18
aI15
aI7
aI0
aI1
aI12
aa(lp2152
I0
aI1
aa(lp2153
I10
aI9
aI2
aI12
aI11
aI8
aI7
aI5
aI4
aI16
aI13
aI15
aI14
aI3
aI0
aI6
aI1
aa(lp2154
I0
aI1
aa(lp2155
I16
aI4
aI12
aI7
aI5
aI2
aI3
aI11
aI14
aI9
aI6
aI13
aI10
aI0
aI22
aI17
aI15
aI1
aI20
aI19
aI21
aI18
aI8
aa(lp2156
I6
aI5
aI16
aI0
aI17
aI1
aI4
aI12
aI15
aI11
aI8
aI7
aI2
aI10
aI9
aI13
aI3
aI14
aa(lp2157
I3
aI2
aI1
aI0
aa(lp2158
I6
aI1
aI3
aI10
aI12
aI9
aI11
aI8
aI7
aI13
aI5
aI0
aI4
aI2
aa(lp2159
I1
aI2
aI0
aI5
aI9
aI3
aI10
aI4
aI6
aI8
aI7
aI11
aa(lp2160
I0
aI2
aI3
aI4
aI1
aa(lp2161
I1
aI4
aI0
aI2
aI3
aI8
aI5
aI6
aI7
aa(lp2162
I5
aI1
aI2
aI3
aI4
aI0
aa(lp2163
I1
aI2
aI0
aI9
aI6
aI11
aI5
aI7
aI14
aI13
aI10
aI3
aI4
aI8
aI12
aa(lp2164
I41
aI14
aI36
aI45
aI13
aI16
aI43
aI33
aI26
aI39
aI12
aI1
aI5
aI18
aI17
aI42
aI40
aI21
aI31
aI29
aI3
aI7
aI22
aI20
aI15
aI37
aI35
aI30
aI2
aI6
aI19
aI44
aI38
aI34
aI27
aI8
aI4
aI46
aI32
aI28
aI24
aI10
aI23
aI0
aI9
aI11
aI25
aa(lp2165
I1
aI0
aa(lp2166
I0
aI1
aI7
aI13
aI14
aI17
aI19
aI6
aI8
aI16
aI12
aI10
aI22
aI15
aI5
aI18
aI21
aI20
aI4
aI11
aI2
aI3
aI9
aa(lp2167
I13
aI10
aI2
aI5
aI8
aI9
aI3
aI0
aI6
aI11
aI1
aI4
aI12
aI7
aa(lp2168
I2
aI1
aI5
aI8
aI3
aI20
aI12
aI4
aI13
aI9
aI6
aI17
aI21
aI14
aI7
aI19
aI15
aI11
aI18
aI16
aI10
aI0
aa(lp2169
I1
aI5
aI4
aI2
aI6
aI3
aI0
aa(lp2170
I3
aI2
aI1
aI0
aI4
aa(lp2171
I5
aI19
aI14
aI29
aI13
aI11
aI24
aI16
aI22
aI18
aI23
aI3
aI33
aI12
aI25
aI4
aI1
aI31
aI26
aI20
aI7
aI32
aI15
aI8
aI30
aI2
aI28
aI17
aI10
aI27
aI9
aI21
aI0
aI6
aa(lp2172
I2
aI3
aI1
aI6
aI9
aI5
aI12
aI8
aI4
aI10
aI7
aI13
aI11
aI0
aa(lp2173
I1
aI0
aI5
aI2
aI4
aI3
aa(lp2174
I0
aI6
aI18
aI12
aI21
aI19
aI30
aI13
aI24
aI31
aI29
aI26
aI14
aI11
aI20
aI27
aI1
aI28
aI5
aI3
aI4
aI23
aI15
aI2
aI10
aI25
aI7
aI17
aI22
aI16
aI9
aI8
aa(lp2175
I0
aI2
aI5
aI1
aI7
aI10
aI9
aI6
aI8
aI4
aI3
aI11
aa(lp2176
I0
aI9
aI1
aI6
aI3
aI13
aI5
aI4
aI11
aI8
aI10
aI7
aI2
aI14
aI15
aI12
aa(lp2177
I1
aI5
aI4
aI3
aI2
aI0
aa(lp2178
I1
aI0
aI2
aa(lp2179
I3
aI1
aI4
aI0
aI2
aa(lp2180
I1
aI7
aI0
aI9
aI5
aI4
aI2
aI8
aI3
aI6
aa(lp2181
I0
aI1
aI2
aa(lp2182
I6
aI1
aI5
aI3
aI0
aI4
aI2
aa(lp2183
I4
aI0
aI21
aI11
aI16
aI3
aI10
aI1
aI5
aI12
aI14
aI8
aI13
aI9
aI15
aI6
aI2
aI18
aI7
aI17
aI19
aI20
aa(lp2184
I1
aI6
aI3
aI2
aI5
aI4
aI0
aa(lp2185
I0
aI3
aI2
aI1
aa(lp2186
I0
aI5
aI3
aI4
aI1
aI2
aa(lp2187
I0
aI6
aI5
aI2
aI4
aI1
aI3
aa(lp2188
I12
aI11
aI6
aI5
aI4
aI13
aI10
aI8
aI7
aI3
aI9
aI1
aI0
aI2
aa(lp2189
I27
aI8
aI6
aI17
aI12
aI25
aI18
aI19
aI15
aI9
aI4
aI16
aI24
aI21
aI26
aI28
aI20
aI11
aI0
aI14
aI5
aI22
aI2
aI3
aI13
aI23
aI10
aI1
aI7
aa(lp2190
I0
aI5
aI6
aI3
aI2
aI1
aI4
aa(lp2191
I3
aI1
aI4
aI0
aI2
aa(lp2192
I0
aI7
aI11
aI2
aI14
aI13
aI5
aI6
aI9
aI18
aI17
aI3
aI12
aI8
aI10
aI4
aI15
aI1
aI16
aa(lp2193
I2
aI3
aI9
aI1
aI10
aI7
aI0
aI4
aI6
aI8
aI5
aa(lp2194
I0
aI2
aI1
aa(lp2195
I0
aa(lp2196
I4
aI3
aI0
aI1
aI2
aa(lp2197
I9
aI3
aI1
aI12
aI0
aI13
aI8
aI5
aI10
aI6
aI14
aI4
aI16
aI7
aI2
aI17
aI15
aI11
aa(lp2198
I1
aI3
aI2
aI4
aI5
aI0
aI6
aa(lp2199
I2
aI16
aI6
aI0
aI11
aI3
aI9
aI1
aI14
aI7
aI15
aI8
aI12
aI4
aI13
aI10
aI5
aa(lp2200
I1
aI2
aI3
aI5
aI6
aI4
aI0
aa(lp2201
I1
aI2
aI0
aa(lp2202
I7
aI2
aI10
aI9
aI4
aI8
aI6
aI3
aI1
aI5
aI0
aa(lp2203
I1
aI7
aI3
aI8
aI9
aI4
aI0
aI6
aI5
aI2
aa(lp2204
I1
aI0
aa(lp2205
I1
aI5
aI2
aI0
aI6
aI4
aI3
aa(lp2206
I1
aI2
aI0
aa(lp2207
I4
aI14
aI19
aI8
aI16
aI18
aI20
aI3
aI17
aI2
aI13
aI9
aI1
aI10
aI6
aI15
aI12
aI11
aI7
aI0
aI5
aa(lp2208
I0
aI1
aI3
aI5
aI4
aI9
aI7
aI10
aI8
aI2
aI6
aa(lp2209
I0
aI2
aI1
aI3
aa(lp2210
I1
aI9
aI0
aI6
aI5
aI4
aI10
aI7
aI2
aI3
aI8
aa(lp2211
I6
aI7
aI9
aI5
aI8
aI10
aI4
aI1
aI3
aI2
aI0
aa(lp2212
I0
aI2
aI6
aI4
aI3
aI1
aI5
aa(lp2213
I5
aI3
aI7
aI2
aI0
aI6
aI1
aI4
aa(lp2214
I2
aI0
aI3
aI1
aa(lp2215
I2
aI6
aI3
aI1
aI7
aI8
aI0
aI4
aI5
aa(lp2216
I0
aI2
aI1
aa(lp2217
I15
aI18
aI11
aI0
aI14
aI2
aI8
aI13
aI10
aI1
aI5
aI20
aI9
aI17
aI12
aI7
aI21
aI19
aI3
aI6
aI4
aI16
aa(lp2218
I1
aI14
aI13
aI3
aI0
aI15
aI7
aI12
aI5
aI6
aI2
aI4
aI8
aI9
aI11
aI10
aa(lp2219
I3
aI0
aI9
aI4
aI2
aI10
aI1
aI11
aI8
aI7
aI6
aI12
aI5
aa(lp2220
I4
aI3
aI2
aI1
aI0
aa(lp2221
I0
aa(lp2222
I2
aI3
aI0
aI11
aI14
aI13
aI12
aI16
aI6
aI9
aI7
aI1
aI15
aI4
aI5
aI10
aI8
aa(lp2223
I1
aI3
aI2
aI0
aa(lp2224
I1
aI5
aI3
aI4
aI2
aI0
aa(lp2225
I2
aI3
aI0
aI1
aa(lp2226
I0
aI5
aI1
aI3
aI2
aI6
aI4
aa(lp2227
I1
aI2
aI18
aI0
aI7
aI4
aI3
aI9
aI12
aI19
aI10
aI14
aI15
aI13
aI16
aI11
aI17
aI5
aI6
aI8
aa(lp2228
I11
aI2
aI6
aI3
aI0
aI9
aI7
aI5
aI10
aI8
aI4
aI1
aa(lp2229
I0
aI2
aI1
aI3
aa(lp2230
I4
aI3
aI5
aI1
aI10
aI2
aI6
aI7
aI8
aI0
aI9
aa(lp2231
I0
aI20
aI24
aI32
aI5
aI11
aI8
aI25
aI3
aI7
aI28
aI22
aI30
aI14
aI17
aI27
aI1
aI19
aI18
aI31
aI16
aI9
aI10
aI2
aI26
aI21
aI4
aI29
aI13
aI23
aI15
aI12
aI6
aa(lp2232
I1
aI5
aI4
aI2
aI8
aI6
aI0
aI3
aI7
aa(lp2233
I7
aI14
aI25
aI0
aI16
aI31
aI22
aI13
aI15
aI24
aI5
aI8
aI18
aI17
aI11
aI23
aI29
aI28
aI6
aI3
aI26
aI9
aI19
aI20
aI10
aI21
aI12
aI30
aI27
aI4
aI2
aI1
aa(lp2234
I8
aI1
aI3
aI4
aI5
aI26
aI7
aI19
aI14
aI16
aI15
aI21
aI18
aI6
aI13
aI11
aI25
aI10
aI22
aI20
aI17
aI24
aI9
aI0
aI23
aI12
aI2
aa(lp2235
I10
aI11
aI1
aI2
aI19
aI18
aI25
aI24
aI26
aI9
aI7
aI20
aI14
aI12
aI30
aI23
aI17
aI21
aI0
aI5
aI3
aI22
aI16
aI8
aI4
aI28
aI6
aI15
aI31
aI29
aI13
aI27
aa(lp2236
I0
aI2
aI1
aI4
aI7
aI9
aI8
aI12
aI6
aI11
aI10
aI5
aI14
aI13
aI3
aa(lp2237
I9
aI8
aI7
aI11
aI3
aI12
aI2
aI0
aI6
aI1
aI10
aI5
aI4
aa(lp2238
I3
aI4
aI11
aI9
aI0
aI10
aI7
aI6
aI1
aI2
aI12
aI5
aI8
aa(lp2239
I2
aI8
aI5
aI9
aI7
aI6
aI4
aI3
aI1
aI0
aa(lp2240
I1
aI2
aI4
aI3
aI0
aa(lp2241
I7
aI8
aI6
aI5
aI11
aI3
aI1
aI10
aI0
aI9
aI12
aI4
aI2
aa(lp2242
I0
aI7
aI4
aI2
aI1
aI5
aI8
aI6
aI3
aI9
aa(lp2243
I0
aI6
aI14
aI11
aI2
aI13
aI3
aI1
aI5
aI12
aI8
aI4
aI7
aI10
aI9
aa(lp2244
I3
aI2
aI4
aI10
aI11
aI7
aI12
aI9
aI5
aI6
aI13
aI1
aI8
aI0
aa.